

Microchip MPLAB XC8 Assembler V2.45 build 20230818022343 
                                                                                               Fri Aug 02 15:57:15 2024

Microchip MPLAB XC8 C Compiler v2.45 (Free license) build 20230818022343 Og1 
     1                           	processor	16F887
     2                           	pagewidth 120
     3                           	opt	flic
     4                           	psect	strings,global,class=STRING,delta=2,noexec
     5                           	psect	cinit,global,class=CODE,merge=1,delta=2
     6                           	psect	bssBANK0,global,class=BANK0,space=1,delta=1,noexec
     7                           	psect	bssBANK1,global,class=BANK1,space=1,delta=1,noexec
     8                           	psect	clrtext,global,class=CODE,delta=2
     9                           	psect	cstackCOMMON,global,class=COMMON,space=1,delta=1,noexec
    10                           	psect	cstackBANK0,global,class=BANK0,space=1,delta=1,noexec
    11                           	psect	maintext,global,class=CODE,split=1,delta=2
    12                           	psect	text1,local,class=CODE,merge=1,delta=2,group=3
    13                           	psect	text2,local,class=CODE,merge=1,delta=2,group=1
    14                           	psect	text3,local,class=CODE,merge=1,delta=2,group=1
    15                           	psect	text4,local,class=CODE,merge=1,delta=2,group=3
    16                           	psect	text5,local,class=CODE,merge=1,delta=2
    17                           	psect	text6,local,class=CODE,merge=1,delta=2,group=3
    18                           	psect	text7,local,class=CODE,merge=1,delta=2,group=2
    19                           	psect	text8,local,class=CODE,merge=1,delta=2,group=2
    20                           	psect	text9,local,class=CODE,merge=1,delta=2
    21                           	psect	text10,local,class=CODE,merge=1,delta=2
    22                           	psect	text11,local,class=CODE,merge=1,delta=2
    23                           	psect	text12,local,class=CODE,merge=1,delta=2
    24                           	psect	text13,local,class=CODE,merge=1,delta=2
    25                           	psect	text14,local,class=CODE,merge=1,delta=2
    26                           	psect	text15,local,class=CODE,merge=1,delta=2
    27                           	psect	text16,local,class=CODE,merge=1,delta=2
    28                           	psect	text17,local,class=CODE,merge=1,delta=2
    29                           	psect	text18,local,class=CODE,merge=1,delta=2
    30                           	psect	text19,local,class=CODE,merge=1,delta=2
    31                           	psect	text20,local,class=CODE,merge=1,delta=2
    32                           	psect	text21,local,class=CODE,merge=1,delta=2
    33                           	psect	text22,local,class=CODE,merge=1,delta=2
    34                           	psect	text23,local,class=CODE,merge=1,delta=2
    35                           	psect	text24,local,class=CODE,merge=1,delta=2
    36                           	psect	text25,local,class=CODE,merge=1,delta=2
    37                           	psect	text26,local,class=CODE,merge=1,delta=2
    38                           	psect	config,global,abs,ovrld,class=CONFIG,space=4,delta=2,noexec
    39                           	dabs	1,0x7E,2
    40     0000                     
    41                           ; Generated 12/10/2023 GMT
    42                           ; 
    43                           ; Copyright © 2023, Microchip Technology Inc. and its subsidiaries ("Microchip")
    44                           ; All rights reserved.
    45                           ; 
    46                           ; This software is developed by Microchip Technology Inc. and its subsidiaries ("Microch
      +                          ip").
    47                           ; 
    48                           ; Redistribution and use in source and binary forms, with or without modification, are
    49                           ; permitted provided that the following conditions are met:
    50                           ; 
    51                           ;     1. Redistributions of source code must retain the above copyright notice, this lis
      +                          t of
    52                           ;        conditions and the following disclaimer.
    53                           ; 
    54                           ;     2. Redistributions in binary form must reproduce the above copyright notice, this 
      +                          list
    55                           ;        of conditions and the following disclaimer in the documentation and/or other
    56                           ;        materials provided with the distribution. Publication is not required when
    57                           ;        this file is used in an embedded application.
    58                           ; 
    59                           ;     3. Microchip's name may not be used to endorse or promote products derived from th
      +                          is
    60                           ;        software without specific prior written permission.
    61                           ; 
    62                           ; THIS SOFTWARE IS PROVIDED BY MICROCHIP "AS IS" AND ANY EXPRESS OR IMPLIED WARRANTIES,
    63                           ; INCLUDING, BUT NOT LIMITED TO, THE IMPLIED WARRANTIES OF MERCHANTABILITY AND FITNESS F
      +                          OR
    64                           ; PURPOSE ARE DISCLAIMED.  IN NO EVENT SHALL MICROCHIP BE LIABLE FOR ANY DIRECT, INDIREC
      +                          T,
    65                           ; INCIDENTAL, SPECIAL, EXEMPLARY, OR CONSEQUENTIAL DAMAGES (INCLUDING BUT NOT LIMITED TO
    66                           ; PROCUREMENT OF SUBSTITUTE GOODS OR SERVICES; LOSS OF USE, DATA OR PROFITS; OR BUSINESS
    67                           ; INTERRUPTION) HOWSOEVER CAUSED AND ON ANY THEORY OF LIABILITY, WHETHER IN CONTRACT, ST
      +                          RICT
    68                           ; LIABILITY, OR TORT (INCLUDING NEGLIGENCE OR OTHERWISE) ARISING IN ANY WAY OUT OF THE U
      +                          SE OF
    69                           ; THIS SOFTWARE, EVEN IF ADVISED OF THE POSSIBILITY OF SUCH DAMAGE.
    70                           ; 
    71                           ; 
    72                           ; Code-generator required, PIC16F887 Definitions
    73                           ; 
    74                           ; SFR Addresses
    75     0000                     	;# 
    76     0001                     	;# 
    77     0002                     	;# 
    78     0003                     	;# 
    79     0004                     	;# 
    80     0005                     	;# 
    81     0006                     	;# 
    82     0007                     	;# 
    83     0008                     	;# 
    84     0009                     	;# 
    85     000A                     	;# 
    86     000B                     	;# 
    87     000C                     	;# 
    88     000D                     	;# 
    89     000E                     	;# 
    90     000E                     	;# 
    91     000F                     	;# 
    92     0010                     	;# 
    93     0011                     	;# 
    94     0012                     	;# 
    95     0013                     	;# 
    96     0014                     	;# 
    97     0015                     	;# 
    98     0015                     	;# 
    99     0016                     	;# 
   100     0017                     	;# 
   101     0018                     	;# 
   102     0019                     	;# 
   103     001A                     	;# 
   104     001B                     	;# 
   105     001B                     	;# 
   106     001C                     	;# 
   107     001D                     	;# 
   108     001E                     	;# 
   109     001F                     	;# 
   110     0081                     	;# 
   111     0085                     	;# 
   112     0086                     	;# 
   113     0087                     	;# 
   114     0088                     	;# 
   115     0089                     	;# 
   116     008C                     	;# 
   117     008D                     	;# 
   118     008E                     	;# 
   119     008F                     	;# 
   120     0090                     	;# 
   121     0091                     	;# 
   122     0092                     	;# 
   123     0093                     	;# 
   124     0093                     	;# 
   125     0093                     	;# 
   126     0094                     	;# 
   127     0095                     	;# 
   128     0096                     	;# 
   129     0097                     	;# 
   130     0098                     	;# 
   131     0099                     	;# 
   132     009A                     	;# 
   133     009B                     	;# 
   134     009C                     	;# 
   135     009D                     	;# 
   136     009E                     	;# 
   137     009F                     	;# 
   138     0105                     	;# 
   139     0107                     	;# 
   140     0108                     	;# 
   141     0109                     	;# 
   142     010C                     	;# 
   143     010C                     	;# 
   144     010D                     	;# 
   145     010E                     	;# 
   146     010F                     	;# 
   147     0185                     	;# 
   148     0187                     	;# 
   149     0188                     	;# 
   150     0189                     	;# 
   151     018C                     	;# 
   152     018D                     	;# 
   153     0000                     	;# 
   154     0001                     	;# 
   155     0002                     	;# 
   156     0003                     	;# 
   157     0004                     	;# 
   158     0005                     	;# 
   159     0006                     	;# 
   160     0007                     	;# 
   161     0008                     	;# 
   162     0009                     	;# 
   163     000A                     	;# 
   164     000B                     	;# 
   165     000C                     	;# 
   166     000D                     	;# 
   167     000E                     	;# 
   168     000E                     	;# 
   169     000F                     	;# 
   170     0010                     	;# 
   171     0011                     	;# 
   172     0012                     	;# 
   173     0013                     	;# 
   174     0014                     	;# 
   175     0015                     	;# 
   176     0015                     	;# 
   177     0016                     	;# 
   178     0017                     	;# 
   179     0018                     	;# 
   180     0019                     	;# 
   181     001A                     	;# 
   182     001B                     	;# 
   183     001B                     	;# 
   184     001C                     	;# 
   185     001D                     	;# 
   186     001E                     	;# 
   187     001F                     	;# 
   188     0081                     	;# 
   189     0085                     	;# 
   190     0086                     	;# 
   191     0087                     	;# 
   192     0088                     	;# 
   193     0089                     	;# 
   194     008C                     	;# 
   195     008D                     	;# 
   196     008E                     	;# 
   197     008F                     	;# 
   198     0090                     	;# 
   199     0091                     	;# 
   200     0092                     	;# 
   201     0093                     	;# 
   202     0093                     	;# 
   203     0093                     	;# 
   204     0094                     	;# 
   205     0095                     	;# 
   206     0096                     	;# 
   207     0097                     	;# 
   208     0098                     	;# 
   209     0099                     	;# 
   210     009A                     	;# 
   211     009B                     	;# 
   212     009C                     	;# 
   213     009D                     	;# 
   214     009E                     	;# 
   215     009F                     	;# 
   216     0105                     	;# 
   217     0107                     	;# 
   218     0108                     	;# 
   219     0109                     	;# 
   220     010C                     	;# 
   221     010C                     	;# 
   222     010D                     	;# 
   223     010E                     	;# 
   224     010F                     	;# 
   225     0185                     	;# 
   226     0187                     	;# 
   227     0188                     	;# 
   228     0189                     	;# 
   229     018C                     	;# 
   230     018D                     	;# 
   231     0000                     	;# 
   232     0001                     	;# 
   233     0002                     	;# 
   234     0003                     	;# 
   235     0004                     	;# 
   236     0005                     	;# 
   237     0006                     	;# 
   238     0007                     	;# 
   239     0008                     	;# 
   240     0009                     	;# 
   241     000A                     	;# 
   242     000B                     	;# 
   243     000C                     	;# 
   244     000D                     	;# 
   245     000E                     	;# 
   246     000E                     	;# 
   247     000F                     	;# 
   248     0010                     	;# 
   249     0011                     	;# 
   250     0012                     	;# 
   251     0013                     	;# 
   252     0014                     	;# 
   253     0015                     	;# 
   254     0015                     	;# 
   255     0016                     	;# 
   256     0017                     	;# 
   257     0018                     	;# 
   258     0019                     	;# 
   259     001A                     	;# 
   260     001B                     	;# 
   261     001B                     	;# 
   262     001C                     	;# 
   263     001D                     	;# 
   264     001E                     	;# 
   265     001F                     	;# 
   266     0081                     	;# 
   267     0085                     	;# 
   268     0086                     	;# 
   269     0087                     	;# 
   270     0088                     	;# 
   271     0089                     	;# 
   272     008C                     	;# 
   273     008D                     	;# 
   274     008E                     	;# 
   275     008F                     	;# 
   276     0090                     	;# 
   277     0091                     	;# 
   278     0092                     	;# 
   279     0093                     	;# 
   280     0093                     	;# 
   281     0093                     	;# 
   282     0094                     	;# 
   283     0095                     	;# 
   284     0096                     	;# 
   285     0097                     	;# 
   286     0098                     	;# 
   287     0099                     	;# 
   288     009A                     	;# 
   289     009B                     	;# 
   290     009C                     	;# 
   291     009D                     	;# 
   292     009E                     	;# 
   293     009F                     	;# 
   294     0105                     	;# 
   295     0107                     	;# 
   296     0108                     	;# 
   297     0109                     	;# 
   298     010C                     	;# 
   299     010C                     	;# 
   300     010D                     	;# 
   301     010E                     	;# 
   302     010F                     	;# 
   303     0185                     	;# 
   304     0187                     	;# 
   305     0188                     	;# 
   306     0189                     	;# 
   307     018C                     	;# 
   308     018D                     	;# 
   309                           
   310                           	psect	strings
   311     0003                     __pstrings:
   312     0003                     stringtab:
   313     0003                     __stringtab:
   314                           
   315                           ;	String table - string pointers are 1 byte each
   316     0003  1BFF               	btfsc	btemp+1,7
   317     0004  280D               	ljmp	stringcode
   318     0005  1383               	bcf	3,7
   319     0006  187F               	btfsc	btemp+1,0
   320     0007  1783               	bsf	3,7
   321     0008  0800               	movf	0,w
   322     0009  0A84               	incf	4,f
   323     000A  1903               	skipnz
   324     000B  0AFF               	incf	btemp+1,f
   325     000C  0008               	return
   326     000D                     stringcode:
   327     000D                     stringdir:
   328     000D  3000               	movlw	high stringdir
   329     000E  008A               	movwf	10
   330     000F  0804               	movf	4,w
   331     0010  0A84               	incf	4,f
   332     0011  0782               	addwf	2,f
   333     0012                     __stringbase:
   334     0012  3400               	retlw	0
   335     0013                     __end_of__stringtab:
   336     0013                     _trai_tim:
   337     0013  3400               	retlw	0
   338     0014  340A               	retlw	10
   339     0015  341F               	retlw	31
   340     0016  341F               	retlw	31
   341     0017  341F               	retlw	31
   342     0018  340E               	retlw	14
   343     0019  3404               	retlw	4
   344     001A  3400               	retlw	0
   345     001B                     __end_of_trai_tim:
   346     0006                     _PORTB	set	6
   347     0007                     _PORTC	set	7
   348     0006                     _PORTBbits	set	6
   349     000B                     _INTCONbits	set	11
   350     0001                     _TMR0	set	1
   351     0044                     _RD4	set	68
   352     0045                     _RD5	set	69
   353     0046                     _RD6	set	70
   354     0047                     _RD7	set	71
   355     0042                     _RD2	set	66
   356     0040                     _RD0	set	64
   357     0041                     _RD1	set	65
   358     003A                     _RC2	set	58
   359     0039                     _RC1	set	57
   360     0038                     _RC0	set	56
   361     0081                     _OPTION_REGbits	set	129
   362     0086                     _TRISB	set	134
   363     0087                     _TRISC	set	135
   364     0441                     _TRISD1	set	1089
   365     0440                     _TRISD0	set	1088
   366     0442                     _TRISD2	set	1090
   367     0447                     _TRISD7	set	1095
   368     0446                     _TRISD6	set	1094
   369     0445                     _TRISD5	set	1093
   370     0444                     _TRISD4	set	1092
   371     0189                     _ANSELH	set	393
   372     0188                     _ANSEL	set	392
   373     001B                     STR_1:
   374     001B  3444               	retlw	68	;'D'
   375     001C  344F               	retlw	79	;'O'
   376     001D  3420               	retlw	32	;' '
   377     001E  3441               	retlw	65	;'A'
   378     001F  344E               	retlw	78	;'N'
   379     0020  3420               	retlw	32	;' '
   380     0021  3450               	retlw	80	;'P'
   381     0022  344C               	retlw	76	;'L'
   382     0023  3453               	retlw	83	;'S'
   383     0024  3450               	retlw	80	;'P'
   384     0025  3420               	retlw	32	;' '
   385     0026  3443               	retlw	67	;'C'
   386     0027  3448               	retlw	72	;'H'
   387     0028  3449               	retlw	73	;'I'
   388     0029  3445               	retlw	69	;'E'
   389     002A  3455               	retlw	85	;'U'
   390     002B  3420               	retlw	32	;' '
   391     002C  3443               	retlw	67	;'C'
   392     002D  3441               	retlw	65	;'A'
   393     002E  344F               	retlw	79	;'O'
   394     002F  3400               	retlw	0
   395     0030                     STR_8:
   396     0030  3454               	retlw	84	;'T'
   397     0031  344F               	retlw	79	;'O'
   398     0032  344E               	retlw	78	;'N'
   399     0033  3447               	retlw	71	;'G'
   400     0034  3420               	retlw	32	;' '
   401     0035  3453               	retlw	83	;'S'
   402     0036  344F               	retlw	79	;'O'
   403     0037  3420               	retlw	32	;' '
   404     0038  344C               	retlw	76	;'L'
   405     0039  3455               	retlw	85	;'U'
   406     003A  344F               	retlw	79	;'O'
   407     003B  344E               	retlw	78	;'N'
   408     003C  3447               	retlw	71	;'G'
   409     003D  343A               	retlw	58	;':'
   410     003E  3425               	retlw	37	;'%'
   411     003F  3464               	retlw	100	;'d'
   412     0040  3400               	retlw	0
   413     0041                     STR_3:
   414     0041  3454               	retlw	84	;'T'
   415     0042  342E               	retlw	46	;'.'
   416     0043  3442               	retlw	66	;'B'
   417     0044  3449               	retlw	73	;'I'
   418     0045  344E               	retlw	78	;'N'
   419     0046  3448               	retlw	72	;'H'
   420     0047  3400               	retlw	0
   421     0048                     STR_4:
   422     0048  3454               	retlw	84	;'T'
   423     0049  3448               	retlw	72	;'H'
   424     004A  3441               	retlw	65	;'A'
   425     004B  3450               	retlw	80	;'P'
   426     004C  3400               	retlw	0
   427     002C                     
   428                           	psect	cinit
   429     07EB                     start_initialization:	
   430                           ; #config settings
   431                           
   432     07EB                     __initialization:
   433                           
   434                           ; Clear objects allocated to BANK0
   435     07EB  1383               	bcf	3,7	;select IRP bank0
   436     07EC  305C               	movlw	low __pbssBANK0
   437     07ED  0084               	movwf	4
   438     07EE  3069               	movlw	low (__pbssBANK0+13)
   439     07EF  120A  118A  212D  120A  118A  	fcall	clear_ram0
   440                           
   441                           ; Clear objects allocated to BANK1
   442     07F4  30A0               	movlw	low __pbssBANK1
   443     07F5  0084               	movwf	4
   444     07F6  30C0               	movlw	low (__pbssBANK1+32)
   445     07F7  120A  118A  212D  120A  118A  	fcall	clear_ram0
   446     07FC                     end_of_initialization:	
   447                           ;End of C runtime variable initialization code
   448                           
   449     07FC                     __end_of__initialization:
   450     07FC  0183               	clrf	3
   451     07FD  120A  118A  2EAD   	ljmp	_main	;jump to C main() function
   452                           
   453                           	psect	bssBANK0
   454     005C                     __pbssBANK0:
   455     005C                     _width:
   456     005C                     	ds	2
   457     005E                     _prec:
   458     005E                     	ds	2
   459     0060                     _flags:
   460     0060                     	ds	1
   461     0061                     _flag_tong:
   462     0061                     	ds	1
   463     0062                     _flag_vua:
   464     0062                     	ds	1
   465     0063                     _flag_thap:
   466     0063                     	ds	1
   467     0064                     _flag_cao:
   468     0064                     	ds	1
   469     0065                     _tong:
   470     0065                     	ds	1
   471     0066                     _sp_vua:
   472     0066                     	ds	1
   473     0067                     _sp_thap:
   474     0067                     	ds	1
   475     0068                     _sp_cao:
   476     0068                     	ds	1
   477                           
   478                           	psect	bssBANK1
   479     00A0                     __pbssBANK1:
   480     00A0                     _dbuf:
   481     00A0                     	ds	32
   482                           
   483                           	psect	clrtext
   484     012D                     clear_ram0:	
   485                           ;	Called with FSR containing the base address, and
   486                           ;	W with the last address+1
   487                           
   488     012D  0064               	clrwdt	;clear the watchdog before getting into this loop
   489     012E                     clrloop0:
   490     012E  0180               	clrf	0	;clear RAM location pointed to by FSR
   491     012F  0A84               	incf	4,f	;increment pointer
   492     0130  0604               	xorwf	4,w	;XOR with final address
   493     0131  1903               	btfsc	3,2	;have we reached the end yet?
   494     0132  3400               	retlw	0	;all done for this memory range, return
   495     0133  0604               	xorwf	4,w	;XOR again to restore value
   496     0134  292E               	goto	clrloop0	;do the next byte
   497                           
   498                           	psect	cstackCOMMON
   499     0070                     __pcstackCOMMON:
   500     0070                     ?_lcd_init:
   501     0070                     ?_lcd_putc:	
   502                           ; 1 bytes @ 0x0
   503                           
   504     0070                     ?_delayTimer0:	
   505                           ; 1 bytes @ 0x0
   506                           
   507     0070                     ??_delayTimer0:	
   508                           ; 1 bytes @ 0x0
   509                           
   510     0070                     ?_servo_xoay_P:	
   511                           ; 1 bytes @ 0x0
   512                           
   513     0070                     ??_servo_xoay_P:	
   514                           ; 1 bytes @ 0x0
   515                           
   516     0070                     ?_servo_xoay_G:	
   517                           ; 1 bytes @ 0x0
   518                           
   519     0070                     ??_servo_xoay_G:	
   520                           ; 1 bytes @ 0x0
   521                           
   522     0070                     ?_servo_xoay_P2:	
   523                           ; 1 bytes @ 0x0
   524                           
   525     0070                     ??_servo_xoay_P2:	
   526                           ; 1 bytes @ 0x0
   527                           
   528     0070                     ?_servo_xoay_G2:	
   529                           ; 1 bytes @ 0x0
   530                           
   531     0070                     ??_servo_xoay_G2:	
   532                           ; 1 bytes @ 0x0
   533                           
   534     0070                     ?_servo_xoay_P3:	
   535                           ; 1 bytes @ 0x0
   536                           
   537     0070                     ??_servo_xoay_P3:	
   538                           ; 1 bytes @ 0x0
   539                           
   540     0070                     ?_servo_xoay_G3:	
   541                           ; 1 bytes @ 0x0
   542                           
   543     0070                     ??_servo_xoay_G3:	
   544                           ; 1 bytes @ 0x0
   545                           
   546     0070                     ?_SP_CAO:	
   547                           ; 1 bytes @ 0x0
   548                           
   549     0070                     ?_SP_THAP:	
   550                           ; 1 bytes @ 0x0
   551                           
   552     0070                     ?_SP_VUA:	
   553                           ; 1 bytes @ 0x0
   554                           
   555     0070                     ?_PIC_Config:	
   556                           ; 1 bytes @ 0x0
   557                           
   558     0070                     ??_PIC_Config:	
   559                           ; 1 bytes @ 0x0
   560                           
   561     0070                     ?_main:	
   562                           ; 1 bytes @ 0x0
   563                           
   564     0070                     ?_lcd_busy:	
   565                           ; 1 bytes @ 0x0
   566                           
   567     0070                     ??_lcd_busy:	
   568                           ; 1 bytes @ 0x0
   569                           
   570     0070                     ?_lcd_put_nibble:	
   571                           ; 1 bytes @ 0x0
   572                           
   573     0070                     ??_lcd_put_nibble:	
   574                           ; 1 bytes @ 0x0
   575                           
   576     0070                     ?_putch:	
   577                           ; 1 bytes @ 0x0
   578                           
   579     0070                     ?___awdiv:	
   580                           ; 1 bytes @ 0x0
   581                           
   582     0070                     ?___awmod:	
   583                           ; 2 bytes @ 0x0
   584                           
   585     0070                     delayTimer0@t:	
   586                           ; 2 bytes @ 0x0
   587                           
   588     0070                     ___awdiv@divisor:	
   589                           ; 2 bytes @ 0x0
   590                           
   591     0070                     ___awmod@divisor:	
   592                           ; 2 bytes @ 0x0
   593                           
   594                           
   595                           ; 2 bytes @ 0x0
   596     0070                     	ds	1
   597     0071                     lcd_busy@busy:
   598     0071                     lcd_put_nibble@b:	
   599                           ; 1 bytes @ 0x1
   600                           
   601                           
   602                           ; 1 bytes @ 0x1
   603     0071                     	ds	1
   604     0072                     ??_SP_CAO:
   605     0072                     ??_SP_THAP:	
   606                           ; 1 bytes @ 0x2
   607                           
   608     0072                     ??_SP_VUA:	
   609                           ; 1 bytes @ 0x2
   610                           
   611     0072                     lcd_put_nibble@temp:	
   612                           ; 1 bytes @ 0x2
   613                           
   614     0072                     ___awdiv@dividend:	
   615                           ; 1 bytes @ 0x2
   616                           
   617     0072                     ___awmod@dividend:	
   618                           ; 2 bytes @ 0x2
   619                           
   620                           
   621                           ; 2 bytes @ 0x2
   622     0072                     	ds	1
   623     0073                     ?_lcd_put_byte:
   624     0073                     lcd_put_byte@b:	
   625                           ; 1 bytes @ 0x3
   626                           
   627                           
   628                           ; 1 bytes @ 0x3
   629     0073                     	ds	1
   630     0074                     ??_lcd_put_byte:
   631     0074                     ??___awdiv:	
   632                           ; 1 bytes @ 0x4
   633                           
   634     0074                     ??___awmod:	
   635                           ; 1 bytes @ 0x4
   636                           
   637     0074                     ___awdiv@counter:	
   638                           ; 1 bytes @ 0x4
   639                           
   640     0074                     ___awmod@counter:	
   641                           ; 1 bytes @ 0x4
   642                           
   643                           
   644                           ; 1 bytes @ 0x4
   645     0074                     	ds	1
   646     0075                     lcd_put_byte@rs:
   647     0075                     ___awdiv@sign:	
   648                           ; 1 bytes @ 0x5
   649                           
   650     0075                     ___awmod@sign:	
   651                           ; 1 bytes @ 0x5
   652                           
   653                           
   654                           ; 1 bytes @ 0x5
   655     0075                     	ds	1
   656     0076                     ??_lcd_init:
   657     0076                     ?_lcd_gotoxy:	
   658                           ; 1 bytes @ 0x6
   659                           
   660     0076                     ?_abs:	
   661                           ; 1 bytes @ 0x6
   662                           
   663     0076                     lcd_gotoxy@row:	
   664                           ; 2 bytes @ 0x6
   665                           
   666     0076                     ___awdiv@quotient:	
   667                           ; 1 bytes @ 0x6
   668                           
   669     0076                     abs@a:	
   670                           ; 2 bytes @ 0x6
   671                           
   672                           
   673                           ; 2 bytes @ 0x6
   674     0076                     	ds	1
   675     0077                     ??_lcd_gotoxy:
   676     0077                     lcd_gotoxy@address:	
   677                           ; 1 bytes @ 0x7
   678                           
   679                           
   680                           ; 1 bytes @ 0x7
   681     0077                     	ds	1
   682     0078                     ??_abs:
   683     0078                     lcd_gotoxy@col:	
   684                           ; 1 bytes @ 0x8
   685                           
   686                           
   687                           ; 1 bytes @ 0x8
   688     0078                     	ds	1
   689     0079                     ??_lcd_putc:
   690                           
   691                           ; 1 bytes @ 0x9
   692     0079                     	ds	2
   693     007B                     lcd_putc@c:
   694                           
   695                           ; 1 bytes @ 0xB
   696     007B                     	ds	1
   697     007C                     ?_lcd_puts:
   698     007C                     ??_putch:	
   699                           ; 1 bytes @ 0xC
   700                           
   701     007C                     putch@c:	
   702                           ; 1 bytes @ 0xC
   703                           
   704     007C                     lcd_puts@s:	
   705                           ; 1 bytes @ 0xC
   706                           
   707                           
   708                           ; 2 bytes @ 0xC
   709     007C                     	ds	1
   710     007D                     ??_sprintf:
   711     007D                     ??_vfprintf:	
   712                           ; 1 bytes @ 0xD
   713                           
   714                           
   715                           ; 1 bytes @ 0xD
   716     007D                     	ds	1
   717     007E                     ??_lcd_puts:
   718                           
   719                           	psect	cstackBANK0
   720     0020                     __pcstackBANK0:	
   721                           ; 1 bytes @ 0xE
   722                           
   723     0020                     ?_fputc:
   724     0020                     fputc@c:	
   725                           ; 2 bytes @ 0x0
   726                           
   727                           
   728                           ; 2 bytes @ 0x0
   729     0020                     	ds	2
   730     0022                     fputc@fp:
   731                           
   732                           ; 1 bytes @ 0x2
   733     0022                     	ds	1
   734     0023                     ??_fputc:
   735                           
   736                           ; 1 bytes @ 0x3
   737     0023                     	ds	5
   738     0028                     ?_vfpfcnvrt:
   739     0028                     vfpfcnvrt@fmt:	
   740                           ; 1 bytes @ 0x8
   741                           
   742                           
   743                           ; 1 bytes @ 0x8
   744     0028                     	ds	1
   745     0029                     vfpfcnvrt@ap:
   746                           
   747                           ; 1 bytes @ 0x9
   748     0029                     	ds	1
   749     002A                     ??_vfpfcnvrt:
   750                           
   751                           ; 1 bytes @ 0xA
   752     002A                     	ds	2
   753     002C                     vfpfcnvrt@done:
   754                           
   755                           ; 1 bytes @ 0xC
   756     002C                     	ds	1
   757     002D                     vfpfcnvrt@fp:
   758                           
   759                           ; 1 bytes @ 0xD
   760     002D                     	ds	1
   761     002E                     vfpfcnvrt@cp:
   762                           
   763                           ; 1 bytes @ 0xE
   764     002E                     	ds	1
   765     002F                     vfpfcnvrt@convarg:
   766                           
   767                           ; 4 bytes @ 0xF
   768     002F                     	ds	4
   769     0033                     vfpfcnvrt@c:
   770                           
   771                           ; 1 bytes @ 0x13
   772     0033                     	ds	1
   773     0034                     ?_vfprintf:
   774     0034                     vfprintf@fmt:	
   775                           ; 2 bytes @ 0x14
   776                           
   777                           
   778                           ; 1 bytes @ 0x14
   779     0034                     	ds	1
   780     0035                     vfprintf@ap:
   781                           
   782                           ; 1 bytes @ 0x15
   783     0035                     	ds	1
   784     0036                     vfprintf@fp:
   785                           
   786                           ; 1 bytes @ 0x16
   787     0036                     	ds	1
   788     0037                     vfprintf@cfmt:
   789                           
   790                           ; 1 bytes @ 0x17
   791     0037                     	ds	1
   792     0038                     ?_sprintf:
   793     0038                     sprintf@fmt:	
   794                           ; 2 bytes @ 0x18
   795                           
   796                           
   797                           ; 1 bytes @ 0x18
   798     0038                     	ds	3
   799     003B                     sprintf@ap:
   800                           
   801                           ; 1 bytes @ 0x1B
   802     003B                     	ds	1
   803     003C                     sprintf@s:
   804                           
   805                           ; 1 bytes @ 0x1C
   806     003C                     	ds	1
   807     003D                     sprintf@f:
   808                           
   809                           ; 11 bytes @ 0x1D
   810     003D                     	ds	11
   811     0048                     ??_main:
   812                           
   813                           ; 1 bytes @ 0x28
   814     0048                     	ds	2
   815     004A                     main@buffer:
   816                           
   817                           ; 16 bytes @ 0x2A
   818     004A                     	ds	16
   819     005A                     main@i:
   820                           
   821                           ; 2 bytes @ 0x3A
   822     005A                     	ds	2
   823                           
   824                           	psect	maintext
   825     06AD                     __pmaintext:	
   826 ;;
   827 ;;Main: autosize = 0, tempsize = 2, incstack = 0, save=0
   828 ;;
   829 ;; *************** function _main *****************
   830 ;; Defined at:
   831 ;;		line 147 in file "TEST_LCD_SERVO.c"
   832 ;; Parameters:    Size  Location     Type
   833 ;;		None
   834 ;; Auto vars:     Size  Location     Type
   835 ;;  i               2   58[BANK0 ] int 
   836 ;;  buffer         16   42[BANK0 ] unsigned char [16]
   837 ;; Return value:  Size  Location     Type
   838 ;;                  1    wreg      void 
   839 ;; Registers used:
   840 ;;		wreg, fsr0l, fsr0h, status,2, status,0, btemp+1, pclath, cstack
   841 ;; Tracked objects:
   842 ;;		On entry : B00/0
   843 ;;		On exit  : 0/0
   844 ;;		Unchanged: 0/0
   845 ;; Data sizes:     COMMON   BANK0   BANK1   BANK3   BANK2
   846 ;;      Params:         0       0       0       0       0
   847 ;;      Locals:         0      18       0       0       0
   848 ;;      Temps:          0       2       0       0       0
   849 ;;      Totals:         0      20       0       0       0
   850 ;;Total ram usage:       20 bytes
   851 ;; Hardware stack levels required when called: 9
   852 ;; This function calls:
   853 ;;		_PIC_Config
   854 ;;		_SP_CAO
   855 ;;		_SP_THAP
   856 ;;		_SP_VUA
   857 ;;		_lcd_gotoxy
   858 ;;		_lcd_init
   859 ;;		_lcd_put_byte
   860 ;;		_lcd_putc
   861 ;;		_lcd_puts
   862 ;;		_sprintf
   863 ;; This function is called by:
   864 ;;		Startup code after reset
   865 ;; This function uses a non-reentrant model
   866 ;;
   867                           
   868     06AD                     _main:	
   869                           ;psect for function _main
   870                           
   871     06AD                     l1856:	
   872                           ;incstack = 0
   873 ;; hardware stack exceeded
   874                           ; Regs used in _main: [wreg-fsr0h+status,2+status,0+btemp+1+pclath+cstack]
   875                           
   876                           
   877                           ;TEST_LCD_SERVO.c: 149: 
   878     06AD  120A  118A  218B  120A  118A  	fcall	_PIC_Config
   879                           
   880                           ;TEST_LCD_SERVO.c: 150:         lcd_gotoxy(0, 0);
   881     06B2  120A  118A  2523  120A  118A  	fcall	_lcd_init
   882                           
   883                           ;TEST_LCD_SERVO.c: 152: ;TEST_LCD_SERVO.c: 156:         lcd_puts("T.BINH");
   884     06B7  3040               	movlw	64
   885     06B8  00F3               	movwf	lcd_put_byte@b
   886     06B9  3000               	movlw	0
   887     06BA  120A  118A  2300  120A  118A  	fcall	_lcd_put_byte
   888     06BF                     l1858:
   889                           
   890                           ;TEST_LCD_SERVO.c: 157:         lcd_gotoxy(15, 1);
   891     06BF  1283               	bcf	3,5	;RP0=0, select bank0
   892     06C0  1303               	bcf	3,6	;RP1=0, select bank0
   893     06C1  01DA               	clrf	main@i
   894     06C2  01DB               	clrf	main@i+1
   895     06C3                     l1864:
   896                           
   897                           ;TEST_LCD_SERVO.c: 158:         lcd_puts("THAP");;TEST_LCD_SERVO.c: 163:         sprintf
      +                          (buffer, "%d", sp_cao);
   898     06C3  1283               	bcf	3,5	;RP0=0, select bank0
   899     06C4  1303               	bcf	3,6	;RP1=0, select bank0
   900     06C5  085A               	movf	main@i,w
   901     06C6  3E01               	addlw	low ((_trai_tim-__stringbase)| (0+32768))
   902     06C7  0084               	movwf	4
   903     06C8  120A  118A  200D  120A  118A  	fcall	stringdir
   904     06CD  00F3               	movwf	lcd_put_byte@b
   905     06CE  3001               	movlw	1
   906     06CF  120A  118A  2300  120A  118A  	fcall	_lcd_put_byte
   907     06D4                     l1866:
   908                           
   909                           ;TEST_LCD_SERVO.c: 164:         lcd_puts(buffer);
   910     06D4  3001               	movlw	1
   911     06D5  1283               	bcf	3,5	;RP0=0, select bank0
   912     06D6  1303               	bcf	3,6	;RP1=0, select bank0
   913     06D7  07DA               	addwf	main@i,f
   914     06D8  1803               	skipnc
   915     06D9  0ADB               	incf	main@i+1,f
   916     06DA  3000               	movlw	0
   917     06DB  07DB               	addwf	main@i+1,f
   918     06DC                     l1868:
   919     06DC  085B               	movf	main@i+1,w
   920     06DD  3A80               	xorlw	128
   921     06DE  00FF               	movwf	btemp+1
   922     06DF  3080               	movlw	128
   923     06E0  027F               	subwf	btemp+1,w
   924     06E1  1D03               	skipz
   925     06E2  2EE5               	goto	u1425
   926     06E3  3008               	movlw	8
   927     06E4  025A               	subwf	main@i,w
   928     06E5                     u1425:
   929     06E5  1C03               	skipc
   930     06E6  2EE8               	goto	u1421
   931     06E7  2EE9               	goto	u1420
   932     06E8                     u1421:
   933     06E8  2EC3               	goto	l1864
   934     06E9                     u1420:
   935     06E9                     l1870:
   936                           
   937                           ;TEST_LCD_SERVO.c: 166:         sprintf(buffer, "%d", sp_vua);;TEST_LCD_SERVO.c: 167:   
      +                                lcd_puts(buffer);
   938     06E9  120A  118A  228C  120A  118A  	fcall	_SP_VUA
   939                           
   940                           ;TEST_LCD_SERVO.c: 168:         lcd_gotoxy(16, 2);
   941     06EE  120A  118A  2248  120A  118A  	fcall	_SP_CAO
   942                           
   943                           ;TEST_LCD_SERVO.c: 169:         sprintf(buffer, "%d", sp_thap);
   944     06F3  120A  118A  226A  120A  118A  	fcall	_SP_THAP
   945     06F8                     l1872:
   946                           
   947                           ;TEST_LCD_SERVO.c: 170:         lcd_puts(buffer);
   948     06F8  1283               	bcf	3,5	;RP0=0, select bank0
   949     06F9  1303               	bcf	3,6	;RP1=0, select bank0
   950     06FA  0867               	movf	_sp_thap,w
   951     06FB  0768               	addwf	_sp_cao,w
   952     06FC  00C8               	movwf	??_main
   953     06FD  0866               	movf	_sp_vua,w
   954     06FE  0748               	addwf	??_main,w
   955     06FF  00E5               	movwf	_tong
   956     0700                     l1874:
   957                           
   958                           ;TEST_LCD_SERVO.c: 172:         lcd_gotoxy(2, 3);
   959     0700  01F6               	clrf	lcd_gotoxy@row
   960     0701  3000               	movlw	0
   961     0702  120A  118A  2337  120A  118A  	fcall	_lcd_gotoxy
   962     0707                     l1876:
   963                           
   964                           ;TEST_LCD_SERVO.c: 173:         sprintf(buffer, "TONG SO LUONG:%d", tong);
   965     0707  3009               	movlw	(low ((STR_1-__stringbase)| (0+32768)))& (0+255)
   966     0708  00FC               	movwf	lcd_puts@s
   967     0709  3080               	movlw	128
   968     070A  00FD               	movwf	lcd_puts@s+1
   969     070B  120A  118A  22AE  120A  118A  	fcall	_lcd_puts
   970     0710                     l1878:
   971                           
   972                           ;TEST_LCD_SERVO.c: 175: 
   973     0710  01F6               	clrf	lcd_gotoxy@row
   974     0711  0AF6               	incf	lcd_gotoxy@row,f
   975     0712  3000               	movlw	0
   976     0713  120A  118A  2337  120A  118A  	fcall	_lcd_gotoxy
   977     0718                     l1880:
   978                           
   979                           ;TEST_LCD_SERVO.c: 176:         lcd_gotoxy(0, 3);
   980     0718  301A               	movlw	(low (((STR_1+17)-__stringbase)| (0+32768)))& (0+255)
   981     0719  00FC               	movwf	lcd_puts@s
   982     071A  3080               	movlw	128
   983     071B  00FD               	movwf	lcd_puts@s+1
   984     071C  120A  118A  22AE  120A  118A  	fcall	_lcd_puts
   985     0721                     l1882:
   986                           
   987                           ;TEST_LCD_SERVO.c: 177: 
   988     0721  01F6               	clrf	lcd_gotoxy@row
   989     0722  0AF6               	incf	lcd_gotoxy@row,f
   990     0723  3006               	movlw	6
   991     0724  120A  118A  2337  120A  118A  	fcall	_lcd_gotoxy
   992     0729                     l1884:
   993                           
   994                           ;TEST_LCD_SERVO.c: 178:         lcd_putc(0);
   995     0729  302F               	movlw	(low ((STR_3-__stringbase)| (0+32768)))& (0+255)
   996     072A  00FC               	movwf	lcd_puts@s
   997     072B  3080               	movlw	128
   998     072C  00FD               	movwf	lcd_puts@s+1
   999     072D  120A  118A  22AE  120A  118A  	fcall	_lcd_puts
  1000     0732                     l1886:
  1001                           
  1002                           ;TEST_LCD_SERVO.c: 179:         lcd_gotoxy(19, 3);
  1003     0732  01F6               	clrf	lcd_gotoxy@row
  1004     0733  0AF6               	incf	lcd_gotoxy@row,f
  1005     0734  300F               	movlw	15
  1006     0735  120A  118A  2337  120A  118A  	fcall	_lcd_gotoxy
  1007     073A                     l1888:
  1008                           
  1009                           ;TEST_LCD_SERVO.c: 180:         lcd_putc(0);
  1010     073A  3036               	movlw	(low ((STR_4-__stringbase)| (0+32768)))& (0+255)
  1011     073B  00FC               	movwf	lcd_puts@s
  1012     073C  3080               	movlw	128
  1013     073D  00FD               	movwf	lcd_puts@s+1
  1014     073E  120A  118A  22AE  120A  118A  	fcall	_lcd_puts
  1015     0743                     l1890:
  1016                           
  1017                           ;TEST_LCD_SERVO.c: 182: }
  1018     0743  3002               	movlw	2
  1019     0744  00F6               	movwf	lcd_gotoxy@row
  1020     0745  3001               	movlw	1
  1021     0746  120A  118A  2337  120A  118A  	fcall	_lcd_gotoxy
  1022     074B                     l1892:
  1023     074B  302C               	movlw	(low (((STR_8+14)-__stringbase)| (0+32768)))& (0+255)
  1024     074C  1283               	bcf	3,5	;RP0=0, select bank0
  1025     074D  1303               	bcf	3,6	;RP1=0, select bank0
  1026     074E  00B8               	movwf	sprintf@fmt
  1027     074F  0868               	movf	_sp_cao,w
  1028     0750  00C8               	movwf	??_main
  1029     0751  01C9               	clrf	??_main+1
  1030     0752  0848               	movf	??_main,w
  1031     0753  00B9               	movwf	?_sprintf+1
  1032     0754  0849               	movf	??_main+1,w
  1033     0755  00BA               	movwf	?_sprintf+2
  1034     0756  304A               	movlw	(low (main@buffer| 0))& (0+255)
  1035     0757  120A  118A  2208  120A  118A  	fcall	_sprintf
  1036     075C                     l1894:
  1037     075C  304A               	movlw	(low (main@buffer| 0))& (0+255)
  1038     075D  00FC               	movwf	lcd_puts@s
  1039     075E  3000               	movlw	0
  1040     075F  00FD               	movwf	lcd_puts@s+1
  1041     0760  120A  118A  22AE  120A  118A  	fcall	_lcd_puts
  1042     0765                     l1896:
  1043     0765  3002               	movlw	2
  1044     0766  00F6               	movwf	lcd_gotoxy@row
  1045     0767  3008               	movlw	8
  1046     0768  120A  118A  2337  120A  118A  	fcall	_lcd_gotoxy
  1047     076D                     l1898:
  1048     076D  302C               	movlw	(low (((STR_8+14)-__stringbase)| (0+32768)))& (0+255)
  1049     076E  1283               	bcf	3,5	;RP0=0, select bank0
  1050     076F  1303               	bcf	3,6	;RP1=0, select bank0
  1051     0770  00B8               	movwf	sprintf@fmt
  1052     0771  0866               	movf	_sp_vua,w
  1053     0772  00C8               	movwf	??_main
  1054     0773  01C9               	clrf	??_main+1
  1055     0774  0848               	movf	??_main,w
  1056     0775  00B9               	movwf	?_sprintf+1
  1057     0776  0849               	movf	??_main+1,w
  1058     0777  00BA               	movwf	?_sprintf+2
  1059     0778  304A               	movlw	(low (main@buffer| 0))& (0+255)
  1060     0779  120A  118A  2208  120A  118A  	fcall	_sprintf
  1061     077E                     l1900:
  1062     077E  304A               	movlw	(low (main@buffer| 0))& (0+255)
  1063     077F  00FC               	movwf	lcd_puts@s
  1064     0780  3000               	movlw	0
  1065     0781  00FD               	movwf	lcd_puts@s+1
  1066     0782  120A  118A  22AE  120A  118A  	fcall	_lcd_puts
  1067     0787                     l1902:
  1068     0787  3002               	movlw	2
  1069     0788  00F6               	movwf	lcd_gotoxy@row
  1070     0789  3010               	movlw	16
  1071     078A  120A  118A  2337  120A  118A  	fcall	_lcd_gotoxy
  1072     078F                     l1904:
  1073     078F  302C               	movlw	(low (((STR_8+14)-__stringbase)| (0+32768)))& (0+255)
  1074     0790  1283               	bcf	3,5	;RP0=0, select bank0
  1075     0791  1303               	bcf	3,6	;RP1=0, select bank0
  1076     0792  00B8               	movwf	sprintf@fmt
  1077     0793  0867               	movf	_sp_thap,w
  1078     0794  00C8               	movwf	??_main
  1079     0795  01C9               	clrf	??_main+1
  1080     0796  0848               	movf	??_main,w
  1081     0797  00B9               	movwf	?_sprintf+1
  1082     0798  0849               	movf	??_main+1,w
  1083     0799  00BA               	movwf	?_sprintf+2
  1084     079A  304A               	movlw	(low (main@buffer| 0))& (0+255)
  1085     079B  120A  118A  2208  120A  118A  	fcall	_sprintf
  1086     07A0                     l1906:
  1087     07A0  304A               	movlw	(low (main@buffer| 0))& (0+255)
  1088     07A1  00FC               	movwf	lcd_puts@s
  1089     07A2  3000               	movlw	0
  1090     07A3  00FD               	movwf	lcd_puts@s+1
  1091     07A4  120A  118A  22AE  120A  118A  	fcall	_lcd_puts
  1092     07A9                     l1908:
  1093     07A9  3003               	movlw	3
  1094     07AA  00F6               	movwf	lcd_gotoxy@row
  1095     07AB  3002               	movlw	2
  1096     07AC  120A  118A  2337  120A  118A  	fcall	_lcd_gotoxy
  1097     07B1                     l1910:
  1098     07B1  301E               	movlw	(low ((STR_8-__stringbase)| (0+32768)))& (0+255)
  1099     07B2  1283               	bcf	3,5	;RP0=0, select bank0
  1100     07B3  1303               	bcf	3,6	;RP1=0, select bank0
  1101     07B4  00B8               	movwf	sprintf@fmt
  1102     07B5  0865               	movf	_tong,w
  1103     07B6  00C8               	movwf	??_main
  1104     07B7  01C9               	clrf	??_main+1
  1105     07B8  0848               	movf	??_main,w
  1106     07B9  00B9               	movwf	?_sprintf+1
  1107     07BA  0849               	movf	??_main+1,w
  1108     07BB  00BA               	movwf	?_sprintf+2
  1109     07BC  304A               	movlw	(low (main@buffer| 0))& (0+255)
  1110     07BD  120A  118A  2208  120A  118A  	fcall	_sprintf
  1111     07C2                     l1912:
  1112     07C2  304A               	movlw	(low (main@buffer| 0))& (0+255)
  1113     07C3  00FC               	movwf	lcd_puts@s
  1114     07C4  3000               	movlw	0
  1115     07C5  00FD               	movwf	lcd_puts@s+1
  1116     07C6  120A  118A  22AE  120A  118A  	fcall	_lcd_puts
  1117     07CB                     l1914:
  1118     07CB  3003               	movlw	3
  1119     07CC  00F6               	movwf	lcd_gotoxy@row
  1120     07CD  3000               	movlw	0
  1121     07CE  120A  118A  2337  120A  118A  	fcall	_lcd_gotoxy
  1122     07D3                     l1916:
  1123     07D3  3000               	movlw	0
  1124     07D4  120A  118A  23B1  120A  118A  	fcall	_lcd_putc
  1125     07D9                     l1918:
  1126     07D9  3003               	movlw	3
  1127     07DA  00F6               	movwf	lcd_gotoxy@row
  1128     07DB  3013               	movlw	19
  1129     07DC  120A  118A  2337  120A  118A  	fcall	_lcd_gotoxy
  1130     07E1                     l1920:
  1131     07E1  3000               	movlw	0
  1132     07E2  120A  118A  23B1  120A  118A  	fcall	_lcd_putc
  1133     07E7  2EE9               	goto	l1870
  1134     07E8  120A  118A  2800   	ljmp	start
  1135     07EB                     __end_of_main:
  1136                           
  1137                           	psect	text1
  1138     0208                     __ptext1:	
  1139 ;; *************** function _sprintf *****************
  1140 ;; Defined at:
  1141 ;;		line 9 in file "C:\Program Files\Microchip\xc8\v2.45\pic\sources\c99\common\nf_sprintf.c"
  1142 ;; Parameters:    Size  Location     Type
  1143 ;;  s               1    wreg     PTR unsigned char 
  1144 ;;		 -> main@buffer(16), 
  1145 ;;  fmt             1   24[BANK0 ] PTR const unsigned char 
  1146 ;;		 -> STR_8(17), STR_7(3), STR_6(3), STR_5(3), 
  1147 ;; Auto vars:     Size  Location     Type
  1148 ;;  s               1   28[BANK0 ] PTR unsigned char 
  1149 ;;		 -> main@buffer(16), 
  1150 ;;  f              11   29[BANK0 ] struct _IO_FILE
  1151 ;;  ret             2    0        int 
  1152 ;;  ap              1   27[BANK0 ] PTR void [1]
  1153 ;;		 -> ?_sprintf(2), 
  1154 ;; Return value:  Size  Location     Type
  1155 ;;                  2   24[BANK0 ] int 
  1156 ;; Registers used:
  1157 ;;		wreg, fsr0l, fsr0h, status,2, status,0, btemp+1, pclath, cstack
  1158 ;; Tracked objects:
  1159 ;;		On entry : 0/0
  1160 ;;		On exit  : 0/0
  1161 ;;		Unchanged: 0/0
  1162 ;; Data sizes:     COMMON   BANK0   BANK1   BANK3   BANK2
  1163 ;;      Params:         0       3       0       0       0
  1164 ;;      Locals:         0      13       0       0       0
  1165 ;;      Temps:          1       0       0       0       0
  1166 ;;      Totals:         1      16       0       0       0
  1167 ;;Total ram usage:       17 bytes
  1168 ;; Hardware stack levels used: 1
  1169 ;; Hardware stack levels required when called: 8
  1170 ;; This function calls:
  1171 ;;		_vfprintf
  1172 ;; This function is called by:
  1173 ;;		_main
  1174 ;; This function uses a non-reentrant model
  1175 ;;
  1176                           
  1177     0208                     _sprintf:	
  1178                           ;psect for function _sprintf
  1179                           
  1180                           
  1181                           ;incstack = 0
  1182 ;; hardware stack exceeded
  1183                           ; Regs used in _sprintf: [wreg-fsr0h+status,2+status,0+btemp+1+pclath+cstack]
  1184                           ;sprintf@s stored from wreg
  1185     0208  1283               	bcf	3,5	;RP0=0, select bank0
  1186     0209  1303               	bcf	3,6	;RP1=0, select bank0
  1187     020A  00BC               	movwf	sprintf@s
  1188     020B                     l1840:
  1189     020B  3039               	movlw	(low ((?_sprintf| 0+1)))& (0+255)
  1190     020C  00BB               	movwf	sprintf@ap
  1191     020D  083C               	movf	sprintf@s,w
  1192     020E  00BD               	movwf	sprintf@f
  1193     020F                     l1842:
  1194     020F  01BF               	clrf	sprintf@f+2
  1195     0210  01C0               	clrf	sprintf@f+3
  1196     0211                     l1844:
  1197     0211  01C6               	clrf	sprintf@f+9
  1198     0212  01C7               	clrf	sprintf@f+10
  1199     0213                     l1846:
  1200     0213  0838               	movf	sprintf@fmt,w
  1201     0214  00B4               	movwf	vfprintf@fmt
  1202     0215  303B               	movlw	(low (sprintf@ap| 0))& (0+255)
  1203     0216  00B5               	movwf	vfprintf@ap
  1204     0217  303D               	movlw	(low (sprintf@f| 0))& (0+255)
  1205     0218  120A  118A  2227  120A  118A  	fcall	_vfprintf
  1206     021D                     l1848:
  1207     021D  1283               	bcf	3,5	;RP0=0, select bank0
  1208     021E  1303               	bcf	3,6	;RP1=0, select bank0
  1209     021F  083F               	movf	sprintf@f+2,w
  1210     0220  073C               	addwf	sprintf@s,w
  1211     0221  00FD               	movwf	??_sprintf
  1212     0222  087D               	movf	??_sprintf,w
  1213     0223  0084               	movwf	4
  1214     0224  1383               	bcf	3,7	;select IRP bank0
  1215     0225  0180               	clrf	0
  1216     0226                     l787:
  1217     0226  0008               	return
  1218     0227                     __end_of_sprintf:
  1219                           
  1220                           	psect	text2
  1221     0227                     __ptext2:	
  1222 ;; *************** function _vfprintf *****************
  1223 ;; Defined at:
  1224 ;;		line 1817 in file "C:\Program Files\Microchip\xc8\v2.45\pic\sources\c99\common\doprnt.c"
  1225 ;; Parameters:    Size  Location     Type
  1226 ;;  fp              1    wreg     PTR struct _IO_FILE
  1227 ;;		 -> sprintf@f(11), 
  1228 ;;  fmt             1   20[BANK0 ] PTR const unsigned char 
  1229 ;;		 -> STR_8(17), STR_7(3), STR_6(3), STR_5(3), 
  1230 ;;  ap              1   21[BANK0 ] PTR PTR void 
  1231 ;;		 -> sprintf@ap(1), 
  1232 ;; Auto vars:     Size  Location     Type
  1233 ;;  fp              1   22[BANK0 ] PTR struct _IO_FILE
  1234 ;;		 -> sprintf@f(11), 
  1235 ;;  cfmt            1   23[BANK0 ] PTR unsigned char 
  1236 ;;		 -> STR_8(17), STR_7(3), STR_6(3), STR_5(3), 
  1237 ;; Return value:  Size  Location     Type
  1238 ;;                  2   20[BANK0 ] int 
  1239 ;; Registers used:
  1240 ;;		wreg, fsr0l, fsr0h, status,2, status,0, btemp+1, pclath, cstack
  1241 ;; Tracked objects:
  1242 ;;		On entry : 0/0
  1243 ;;		On exit  : 0/0
  1244 ;;		Unchanged: 0/0
  1245 ;; Data sizes:     COMMON   BANK0   BANK1   BANK3   BANK2
  1246 ;;      Params:         0       2       0       0       0
  1247 ;;      Locals:         0       2       0       0       0
  1248 ;;      Temps:          0       0       0       0       0
  1249 ;;      Totals:         0       4       0       0       0
  1250 ;;Total ram usage:        4 bytes
  1251 ;; Hardware stack levels used: 1
  1252 ;; Hardware stack levels required when called: 7
  1253 ;; This function calls:
  1254 ;;		_vfpfcnvrt
  1255 ;; This function is called by:
  1256 ;;		_sprintf
  1257 ;; This function uses a non-reentrant model
  1258 ;;
  1259                           
  1260     0227                     _vfprintf:	
  1261                           ;psect for function _vfprintf
  1262                           
  1263                           
  1264                           ;incstack = 0
  1265 ;; hardware stack exceeded
  1266                           ; Regs used in _vfprintf: [wreg-fsr0h+status,2+status,0+btemp+1+pclath+cstack]
  1267                           ;vfprintf@fp stored from wreg
  1268     0227  1283               	bcf	3,5	;RP0=0, select bank0
  1269     0228  1303               	bcf	3,6	;RP1=0, select bank0
  1270     0229  00B6               	movwf	vfprintf@fp
  1271     022A                     l1730:
  1272                           
  1273                           ;C:\Program Files\Microchip\xc8\v2.45\pic\sources\c99\common\doprnt.c: 1817: int vfprint
      +                          f(FILE *fp, const char *fmt, va_list ap);C:\Program Files\Microchip\xc8\v2.45\pic\source
      +                          s\c99\common\doprnt.c: 1818: {;C:\Program Files\Microchip\xc8\v2.45\pic\sources\c99\comm
      +                          on\doprnt.c: 1820:     char *cfmt;;C:\Program Files\Microchip\xc8\v2.45\pic\sources\c99\
      +                          common\doprnt.c: 1822:     cfmt = (char *)fmt;
  1274     022A  0834               	movf	vfprintf@fmt,w
  1275     022B  00B7               	movwf	vfprintf@cfmt
  1276                           
  1277                           ;C:\Program Files\Microchip\xc8\v2.45\pic\sources\c99\common\doprnt.c: 1826:     while (
      +                          *cfmt) {
  1278     022C  2A37               	goto	l1734
  1279     022D                     l1732:
  1280                           
  1281                           ;C:\Program Files\Microchip\xc8\v2.45\pic\sources\c99\common\doprnt.c: 1830:    vfpfcnvr
      +                          t(fp, &cfmt, ap);
  1282     022D  3037               	movlw	(low (vfprintf@cfmt| 0))& (0+255)
  1283     022E  00A8               	movwf	vfpfcnvrt@fmt
  1284     022F  0835               	movf	vfprintf@ap,w
  1285     0230  00A9               	movwf	vfpfcnvrt@ap
  1286     0231  0836               	movf	vfprintf@fp,w
  1287     0232  120A  118A  25C0  120A  118A  	fcall	_vfpfcnvrt
  1288     0237                     l1734:
  1289                           
  1290                           ;C:\Program Files\Microchip\xc8\v2.45\pic\sources\c99\common\doprnt.c: 1826:     while (
      +                          *cfmt) {
  1291     0237  1283               	bcf	3,5	;RP0=0, select bank0
  1292     0238  1303               	bcf	3,6	;RP1=0, select bank0
  1293     0239  0837               	movf	vfprintf@cfmt,w
  1294     023A  0084               	movwf	4
  1295     023B  120A  118A  200D  120A  118A  	fcall	stringdir
  1296     0240  3A00               	xorlw	0
  1297     0241  1D03               	skipz
  1298     0242  2A44               	goto	u1321
  1299     0243  2A45               	goto	u1320
  1300     0244                     u1321:
  1301     0244  2A2D               	goto	l1732
  1302     0245                     u1320:
  1303     0245                     l1736:
  1304                           
  1305                           ;C:\Program Files\Microchip\xc8\v2.45\pic\sources\c99\common\doprnt.c: 1835:  return 0;
  1306     0245  01B4               	clrf	?_vfprintf
  1307     0246  01B5               	clrf	?_vfprintf+1
  1308     0247                     l831:
  1309     0247  0008               	return
  1310     0248                     __end_of_vfprintf:
  1311                           
  1312                           	psect	text3
  1313     05C0                     __ptext3:	
  1314 ;; *************** function _vfpfcnvrt *****************
  1315 ;; Defined at:
  1316 ;;		line 1177 in file "C:\Program Files\Microchip\xc8\v2.45\pic\sources\c99\common\doprnt.c"
  1317 ;; Parameters:    Size  Location     Type
  1318 ;;  fp              1    wreg     PTR struct _IO_FILE
  1319 ;;		 -> sprintf@f(11), 
  1320 ;;  fmt             1    8[BANK0 ] PTR PTR unsigned char 
  1321 ;;		 -> vfprintf@cfmt(1), 
  1322 ;;  ap              1    9[BANK0 ] PTR PTR void 
  1323 ;;		 -> sprintf@ap(1), 
  1324 ;; Auto vars:     Size  Location     Type
  1325 ;;  fp              1   13[BANK0 ] PTR struct _IO_FILE
  1326 ;;		 -> sprintf@f(11), 
  1327 ;;  convarg         4   15[BANK0 ] struct .
  1328 ;;  c               1   19[BANK0 ] unsigned char 
  1329 ;;  cp              1   14[BANK0 ] PTR unsigned char 
  1330 ;;		 -> STR_8(17), STR_7(3), STR_6(3), STR_5(3), 
  1331 ;;  done            1   12[BANK0 ] _Bool 
  1332 ;; Return value:  Size  Location     Type
  1333 ;;                  1    wreg      void 
  1334 ;; Registers used:
  1335 ;;		wreg, fsr0l, fsr0h, status,2, status,0, btemp+1, pclath, cstack
  1336 ;; Tracked objects:
  1337 ;;		On entry : 0/0
  1338 ;;		On exit  : 0/0
  1339 ;;		Unchanged: 0/0
  1340 ;; Data sizes:     COMMON   BANK0   BANK1   BANK3   BANK2
  1341 ;;      Params:         0       2       0       0       0
  1342 ;;      Locals:         0       8       0       0       0
  1343 ;;      Temps:          0       2       0       0       0
  1344 ;;      Totals:         0      12       0       0       0
  1345 ;;Total ram usage:       12 bytes
  1346 ;; Hardware stack levels used: 1
  1347 ;; Hardware stack levels required when called: 6
  1348 ;; This function calls:
  1349 ;;		___awdiv
  1350 ;;		___awmod
  1351 ;;		_abs
  1352 ;;		_fputc
  1353 ;; This function is called by:
  1354 ;;		_vfprintf
  1355 ;; This function uses a non-reentrant model
  1356 ;;
  1357                           
  1358     05C0                     _vfpfcnvrt:	
  1359                           ;psect for function _vfpfcnvrt
  1360                           
  1361                           
  1362                           ;incstack = 0
  1363 ;; hardware stack exceeded
  1364                           ; Regs used in _vfpfcnvrt: [wreg-fsr0h+status,2+status,0+btemp+1+pclath+cstack]
  1365                           ;vfpfcnvrt@fp stored from wreg
  1366     05C0  1283               	bcf	3,5	;RP0=0, select bank0
  1367     05C1  1303               	bcf	3,6	;RP1=0, select bank0
  1368     05C2  00AD               	movwf	vfpfcnvrt@fp
  1369     05C3                     l1634:
  1370                           
  1371                           ;C:\Program Files\Microchip\xc8\v2.45\pic\sources\c99\common\doprnt.c: 1177: vfpfcnvrt(F
      +                          ILE *fp, char *fmt[], va_list ap);C:\Program Files\Microchip\xc8\v2.45\pic\sources\c99\c
      +                          ommon\doprnt.c: 1178: {;C:\Program Files\Microchip\xc8\v2.45\pic\sources\c99\common\dopr
      +                          nt.c: 1179:     char c, *cp;;C:\Program Files\Microchip\xc8\v2.45\pic\sources\c99\common
      +                          \doprnt.c: 1180:     _Bool done;;C:\Program Files\Microchip\xc8\v2.45\pic\sources\c99\co
      +                          mmon\doprnt.c: 1188:  } convarg;;C:\Program Files\Microchip\xc8\v2.45\pic\sources\c99\co
      +                          mmon\doprnt.c: 1201:     if ((*fmt)[0] == '%') {
  1372     05C3  0828               	movf	vfpfcnvrt@fmt,w
  1373     05C4  0084               	movwf	4
  1374     05C5  1383               	bcf	3,7	;select IRP bank0
  1375     05C6  0800               	movf	0,w
  1376     05C7  0084               	movwf	4
  1377     05C8  120A  118A  200D  120A  118A  	fcall	stringdir
  1378     05CD  3A25               	xorlw	37
  1379     05CE  1D03               	skipz
  1380     05CF  2DD1               	goto	u1201
  1381     05D0  2DD2               	goto	u1200
  1382     05D1                     u1201:
  1383     05D1  2E95               	goto	l1680
  1384     05D2                     u1200:
  1385     05D2                     l1636:
  1386                           
  1387                           ;C:\Program Files\Microchip\xc8\v2.45\pic\sources\c99\common\doprnt.c: 1202:         ++*
      +                          fmt;
  1388     05D2  3001               	movlw	1
  1389     05D3  00FF               	movwf	btemp+1
  1390     05D4  0828               	movf	vfpfcnvrt@fmt,w
  1391     05D5  0084               	movwf	4
  1392     05D6  087F               	movf	btemp+1,w
  1393     05D7  0780               	addwf	0,f
  1394     05D8                     l1638:
  1395                           
  1396                           ;C:\Program Files\Microchip\xc8\v2.45\pic\sources\c99\common\doprnt.c: 1204:         fla
      +                          gs = width = 0;
  1397     05D8  01DC               	clrf	_width
  1398     05D9  01DD               	clrf	_width+1
  1399     05DA  1003               	clrc
  1400     05DB  3000               	movlw	0
  1401     05DC  1803               	btfsc	3,0
  1402     05DD  3001               	movlw	1
  1403     05DE  00E0               	movwf	_flags
  1404     05DF                     l1640:
  1405                           
  1406                           ;C:\Program Files\Microchip\xc8\v2.45\pic\sources\c99\common\doprnt.c: 1205:         pre
      +                          c = -1;
  1407     05DF  30FF               	movlw	255
  1408     05E0  00DE               	movwf	_prec
  1409     05E1  30FF               	movlw	255
  1410     05E2  00DF               	movwf	_prec+1
  1411     05E3                     l1642:
  1412                           
  1413                           ;C:\Program Files\Microchip\xc8\v2.45\pic\sources\c99\common\doprnt.c: 1291:   cp = *fmt
      +                          ;
  1414     05E3  0828               	movf	vfpfcnvrt@fmt,w
  1415     05E4  0084               	movwf	4
  1416     05E5  0800               	movf	0,w
  1417     05E6  00AE               	movwf	vfpfcnvrt@cp
  1418     05E7                     l1644:
  1419                           
  1420                           ;C:\Program Files\Microchip\xc8\v2.45\pic\sources\c99\common\doprnt.c: 1361:   if (*cp =
      +                          = 'd' || *cp == 'i') {
  1421     05E7  082E               	movf	vfpfcnvrt@cp,w
  1422     05E8  0084               	movwf	4
  1423     05E9  120A  118A  200D  120A  118A  	fcall	stringdir
  1424     05EE  3A64               	xorlw	100
  1425     05EF  1903               	skipnz
  1426     05F0  2DF2               	goto	u1211
  1427     05F1  2DF3               	goto	u1210
  1428     05F2                     u1211:
  1429     05F2  2DFF               	goto	l1648
  1430     05F3                     u1210:
  1431     05F3                     l1646:
  1432     05F3  082E               	movf	vfpfcnvrt@cp,w
  1433     05F4  0084               	movwf	4
  1434     05F5  120A  118A  200D  120A  118A  	fcall	stringdir
  1435     05FA  3A69               	xorlw	105
  1436     05FB  1D03               	skipz
  1437     05FC  2DFE               	goto	u1221
  1438     05FD  2DFF               	goto	u1220
  1439     05FE                     u1221:
  1440     05FE  2E8B               	goto	l1676
  1441     05FF                     u1220:
  1442     05FF                     l1648:
  1443                           
  1444                           ;C:\Program Files\Microchip\xc8\v2.45\pic\sources\c99\common\doprnt.c: 1404:    convarg.
      +                          sint = (vfpf_sint_t)(int)(*(int *)__va_arg(*(int **)ap, (int)0));
  1445     05FF  0829               	movf	vfpfcnvrt@ap,w
  1446     0600  0084               	movwf	4
  1447     0601  0800               	movf	0,w
  1448     0602  00FF               	movwf	btemp+1
  1449     0603  3002               	movlw	2
  1450     0604  0780               	addwf	0,f
  1451     0605  087F               	movf	btemp+1,w
  1452     0606  0084               	movwf	4
  1453     0607  0800               	movf	0,w
  1454     0608  00AF               	movwf	vfpfcnvrt@convarg
  1455     0609  0A84               	incf	4,f
  1456     060A  0800               	movf	0,w
  1457     060B  00B0               	movwf	vfpfcnvrt@convarg+1
  1458     060C                     l1650:
  1459                           
  1460                           ;C:\Program Files\Microchip\xc8\v2.45\pic\sources\c99\common\doprnt.c: 1406:    *fmt = c
      +                          p+1;
  1461     060C  0828               	movf	vfpfcnvrt@fmt,w
  1462     060D  0084               	movwf	4
  1463     060E  082E               	movf	vfpfcnvrt@cp,w
  1464     060F  3E01               	addlw	1
  1465     0610  0080               	movwf	0
  1466     0611                     l1652:
  1467                           
  1468                           ;C:\Program Files\Microchip\xc8\v2.45\pic\sources\c99\common\doprnt.c: 1408:    c = size
      +                          of(dbuf);
  1469     0611  3020               	movlw	32
  1470     0612  00B3               	movwf	vfpfcnvrt@c
  1471     0613                     l1654:
  1472                           
  1473                           ;C:\Program Files\Microchip\xc8\v2.45\pic\sources\c99\common\doprnt.c: 1409:    done = c
      +                          onvarg.sint < 0;
  1474     0613  1BB0               	btfsc	vfpfcnvrt@convarg+1,7
  1475     0614  2E16               	goto	u1231
  1476     0615  2E18               	goto	u1230
  1477     0616                     u1231:
  1478     0616  3001               	movlw	1
  1479     0617  2E19               	goto	u1240
  1480     0618                     u1230:
  1481     0618  3000               	movlw	0
  1482     0619                     u1240:
  1483     0619  00AC               	movwf	vfpfcnvrt@done
  1484     061A                     l1656:
  1485                           
  1486                           ;C:\Program Files\Microchip\xc8\v2.45\pic\sources\c99\common\doprnt.c: 1411:     dbuf[--
      +                          c] = abs(convarg.sint % 10) + '0';
  1487     061A  3001               	movlw	1
  1488     061B  02B3               	subwf	vfpfcnvrt@c,f
  1489     061C  0833               	movf	vfpfcnvrt@c,w
  1490     061D  3EA0               	addlw	(low (_dbuf| 0))& (0+255)
  1491     061E  0084               	movwf	4
  1492     061F  300A               	movlw	10
  1493     0620  00F0               	movwf	___awmod@divisor
  1494     0621  3000               	movlw	0
  1495     0622  00F1               	movwf	___awmod@divisor+1
  1496     0623  0830               	movf	vfpfcnvrt@convarg+1,w
  1497     0624  00F3               	movwf	___awmod@dividend+1
  1498     0625  082F               	movf	vfpfcnvrt@convarg,w
  1499     0626  00F2               	movwf	___awmod@dividend
  1500     0627  120A  118A  2409  120A  118A  	fcall	___awmod
  1501     062C  0871               	movf	?___awmod+1,w
  1502     062D  00F7               	movwf	abs@a+1
  1503     062E  0870               	movf	?___awmod,w
  1504     062F  00F6               	movwf	abs@a
  1505     0630  120A  118A  2135  120A  118A  	fcall	_abs
  1506     0635  0876               	movf	?_abs,w
  1507     0636  3E30               	addlw	48
  1508     0637  1383               	bcf	3,7	;select IRP bank1
  1509     0638  0080               	movwf	0
  1510     0639                     l1658:
  1511                           
  1512                           ;C:\Program Files\Microchip\xc8\v2.45\pic\sources\c99\common\doprnt.c: 1412:     convarg
      +                          .sint /= 10;
  1513     0639  300A               	movlw	10
  1514     063A  00F0               	movwf	___awdiv@divisor
  1515     063B  3000               	movlw	0
  1516     063C  00F1               	movwf	___awdiv@divisor+1
  1517     063D  1283               	bcf	3,5	;RP0=0, select bank0
  1518     063E  1303               	bcf	3,6	;RP1=0, select bank0
  1519     063F  0830               	movf	vfpfcnvrt@convarg+1,w
  1520     0640  00F3               	movwf	___awdiv@dividend+1
  1521     0641  082F               	movf	vfpfcnvrt@convarg,w
  1522     0642  00F2               	movwf	___awdiv@dividend
  1523     0643  120A  118A  24BC  120A  118A  	fcall	___awdiv
  1524     0648  0871               	movf	?___awdiv+1,w
  1525     0649  1283               	bcf	3,5	;RP0=0, select bank0
  1526     064A  1303               	bcf	3,6	;RP1=0, select bank0
  1527     064B  00B0               	movwf	vfpfcnvrt@convarg+1
  1528     064C  0870               	movf	?___awdiv,w
  1529     064D  00AF               	movwf	vfpfcnvrt@convarg
  1530     064E                     l1660:
  1531                           
  1532                           ;C:\Program Files\Microchip\xc8\v2.45\pic\sources\c99\common\doprnt.c: 1416:    } while 
      +                          (convarg.sint != 0 && c != 0);
  1533     064E  082F               	movf	vfpfcnvrt@convarg,w
  1534     064F  0430               	iorwf	vfpfcnvrt@convarg+1,w
  1535     0650  1903               	btfsc	3,2
  1536     0651  2E53               	goto	u1251
  1537     0652  2E54               	goto	u1250
  1538     0653                     u1251:
  1539     0653  2E59               	goto	l1664
  1540     0654                     u1250:
  1541     0654                     l1662:
  1542     0654  0833               	movf	vfpfcnvrt@c,w
  1543     0655  1D03               	btfss	3,2
  1544     0656  2E58               	goto	u1261
  1545     0657  2E59               	goto	u1260
  1546     0658                     u1261:
  1547     0658  2E1A               	goto	l1656
  1548     0659                     u1260:
  1549     0659                     l1664:
  1550                           
  1551                           ;C:\Program Files\Microchip\xc8\v2.45\pic\sources\c99\common\doprnt.c: 1417:    if (c !=
      +                           0 && done) {
  1552     0659  0833               	movf	vfpfcnvrt@c,w
  1553     065A  1903               	btfsc	3,2
  1554     065B  2E5D               	goto	u1271
  1555     065C  2E5E               	goto	u1270
  1556     065D                     u1271:
  1557     065D  2E84               	goto	l1674
  1558     065E                     u1270:
  1559     065E                     l1666:
  1560     065E  082C               	movf	vfpfcnvrt@done,w
  1561     065F  1903               	btfsc	3,2
  1562     0660  2E62               	goto	u1281
  1563     0661  2E63               	goto	u1280
  1564     0662                     u1281:
  1565     0662  2E84               	goto	l1674
  1566     0663                     u1280:
  1567     0663                     l1668:
  1568                           
  1569                           ;C:\Program Files\Microchip\xc8\v2.45\pic\sources\c99\common\doprnt.c: 1418:     dbuf[--
      +                          c] = '-';
  1570     0663  3001               	movlw	1
  1571     0664  02B3               	subwf	vfpfcnvrt@c,f
  1572     0665  0833               	movf	vfpfcnvrt@c,w
  1573     0666  3EA0               	addlw	(low (_dbuf| 0))& (0+255)
  1574     0667  0084               	movwf	4
  1575     0668  302D               	movlw	45
  1576     0669  1383               	bcf	3,7	;select IRP bank1
  1577     066A  0080               	movwf	0
  1578     066B  2E84               	goto	l1674
  1579     066C                     l1670:
  1580                           
  1581                           ;C:\Program Files\Microchip\xc8\v2.45\pic\sources\c99\common\doprnt.c: 1424:     fputc(d
      +                          buf[c++], fp);
  1582     066C  0833               	movf	vfpfcnvrt@c,w
  1583     066D  3EA0               	addlw	(low (_dbuf| 0))& (0+255)
  1584     066E  0084               	movwf	4
  1585     066F  1383               	bcf	3,7	;select IRP bank1
  1586     0670  0800               	movf	0,w
  1587     0671  00AA               	movwf	??_vfpfcnvrt
  1588     0672  01AB               	clrf	??_vfpfcnvrt+1
  1589     0673  082A               	movf	??_vfpfcnvrt,w
  1590     0674  00A0               	movwf	fputc@c
  1591     0675  082B               	movf	??_vfpfcnvrt+1,w
  1592     0676  00A1               	movwf	fputc@c+1
  1593     0677  082D               	movf	vfpfcnvrt@fp,w
  1594     0678  00A2               	movwf	fputc@fp
  1595     0679  120A  118A  2462  120A  118A  	fcall	_fputc
  1596     067E                     l1672:
  1597     067E  3001               	movlw	1
  1598     067F  00FF               	movwf	btemp+1
  1599     0680  087F               	movf	btemp+1,w
  1600     0681  1283               	bcf	3,5	;RP0=0, select bank0
  1601     0682  1303               	bcf	3,6	;RP1=0, select bank0
  1602     0683  07B3               	addwf	vfpfcnvrt@c,f
  1603     0684                     l1674:
  1604                           
  1605                           ;C:\Program Files\Microchip\xc8\v2.45\pic\sources\c99\common\doprnt.c: 1423:    while (c
      +                           != sizeof(dbuf)) {
  1606     0684  3020               	movlw	32
  1607     0685  0633               	xorwf	vfpfcnvrt@c,w
  1608     0686  1D03               	btfss	3,2
  1609     0687  2E89               	goto	u1291
  1610     0688  2E8A               	goto	u1290
  1611     0689                     u1291:
  1612     0689  2E6C               	goto	l1670
  1613     068A                     u1290:
  1614     068A  2EAC               	goto	l825
  1615     068B                     l1676:
  1616                           
  1617                           ;C:\Program Files\Microchip\xc8\v2.45\pic\sources\c99\common\doprnt.c: 1806:         ++*
      +                          fmt;
  1618     068B  3001               	movlw	1
  1619     068C  00FF               	movwf	btemp+1
  1620     068D  1283               	bcf	3,5	;RP0=0, select bank0
  1621     068E  1303               	bcf	3,6	;RP1=0, select bank0
  1622     068F  0828               	movf	vfpfcnvrt@fmt,w
  1623     0690  0084               	movwf	4
  1624     0691  087F               	movf	btemp+1,w
  1625     0692  1383               	bcf	3,7	;select IRP bank0
  1626     0693  0780               	addwf	0,f
  1627     0694  2EAC               	goto	l825
  1628     0695                     l1680:
  1629                           
  1630                           ;C:\Program Files\Microchip\xc8\v2.45\pic\sources\c99\common\doprnt.c: 1811:     fputc((
      +                          int)(*fmt)[0], fp);
  1631     0695  0828               	movf	vfpfcnvrt@fmt,w
  1632     0696  0084               	movwf	4
  1633     0697  0800               	movf	0,w
  1634     0698  0084               	movwf	4
  1635     0699  120A  118A  200D  120A  118A  	fcall	stringdir
  1636     069E  00AA               	movwf	??_vfpfcnvrt
  1637     069F  01AB               	clrf	??_vfpfcnvrt+1
  1638     06A0  082A               	movf	??_vfpfcnvrt,w
  1639     06A1  00A0               	movwf	fputc@c
  1640     06A2  082B               	movf	??_vfpfcnvrt+1,w
  1641     06A3  00A1               	movwf	fputc@c+1
  1642     06A4  082D               	movf	vfpfcnvrt@fp,w
  1643     06A5  00A2               	movwf	fputc@fp
  1644     06A6  120A  118A  2462  120A  118A  	fcall	_fputc
  1645     06AB  2E8B               	goto	l1676
  1646     06AC                     l825:
  1647     06AC  0008               	return
  1648     06AD                     __end_of_vfpfcnvrt:
  1649                           
  1650                           	psect	text4
  1651     0462                     __ptext4:	
  1652 ;; *************** function _fputc *****************
  1653 ;; Defined at:
  1654 ;;		line 8 in file "C:\Program Files\Microchip\xc8\v2.45\pic\sources\c99\common\nf_fputc.c"
  1655 ;; Parameters:    Size  Location     Type
  1656 ;;  c               2    0[BANK0 ] int 
  1657 ;;  fp              1    2[BANK0 ] PTR struct _IO_FILE
  1658 ;;		 -> sprintf@f(11), 
  1659 ;; Auto vars:     Size  Location     Type
  1660 ;;		None
  1661 ;; Return value:  Size  Location     Type
  1662 ;;                  2    0[BANK0 ] int 
  1663 ;; Registers used:
  1664 ;;		wreg, fsr0l, fsr0h, status,2, status,0, pclath, cstack
  1665 ;; Tracked objects:
  1666 ;;		On entry : 0/0
  1667 ;;		On exit  : 0/0
  1668 ;;		Unchanged: 0/0
  1669 ;; Data sizes:     COMMON   BANK0   BANK1   BANK3   BANK2
  1670 ;;      Params:         0       3       0       0       0
  1671 ;;      Locals:         0       0       0       0       0
  1672 ;;      Temps:          0       5       0       0       0
  1673 ;;      Totals:         0       8       0       0       0
  1674 ;;Total ram usage:        8 bytes
  1675 ;; Hardware stack levels used: 1
  1676 ;; Hardware stack levels required when called: 5
  1677 ;; This function calls:
  1678 ;;		_putch
  1679 ;; This function is called by:
  1680 ;;		_vfpfcnvrt
  1681 ;; This function uses a non-reentrant model
  1682 ;;
  1683                           
  1684     0462                     _fputc:	
  1685                           ;psect for function _fputc
  1686                           
  1687     0462                     l1612:	
  1688                           ;incstack = 0
  1689 ;; hardware stack exceeded
  1690                           ; Regs used in _fputc: [wreg-fsr0h+status,2+status,0+pclath+cstack]
  1691                           
  1692     0462  1283               	bcf	3,5	;RP0=0, select bank0
  1693     0463  1303               	bcf	3,6	;RP1=0, select bank0
  1694     0464  0822               	movf	fputc@fp,w
  1695     0465  1903               	btfsc	3,2
  1696     0466  2C68               	goto	u1151
  1697     0467  2C69               	goto	u1150
  1698     0468                     u1151:
  1699     0468  2C6E               	goto	l1616
  1700     0469                     u1150:
  1701     0469                     l1614:
  1702     0469  0822               	movf	fputc@fp,w
  1703     046A  1D03               	btfss	3,2
  1704     046B  2C6D               	goto	u1161
  1705     046C  2C6E               	goto	u1160
  1706     046D                     u1161:
  1707     046D  2C75               	goto	l1618
  1708     046E                     u1160:
  1709     046E                     l1616:
  1710     046E  0820               	movf	fputc@c,w
  1711     046F  120A  118A  2125  120A  118A  	fcall	_putch
  1712     0474  2CBB               	goto	l850
  1713     0475                     l1618:
  1714     0475  0822               	movf	fputc@fp,w
  1715     0476  3E09               	addlw	9
  1716     0477  0084               	movwf	4
  1717     0478  1383               	bcf	3,7	;select IRP bank0
  1718     0479  0800               	movf	0,w
  1719     047A  00A3               	movwf	??_fputc
  1720     047B  0A84               	incf	4,f
  1721     047C  0800               	movf	0,w
  1722     047D  00A4               	movwf	??_fputc+1
  1723     047E  0823               	movf	??_fputc,w
  1724     047F  0424               	iorwf	??_fputc+1,w
  1725     0480  1903               	btfsc	3,2
  1726     0481  2C83               	goto	u1171
  1727     0482  2C84               	goto	u1170
  1728     0483                     u1171:
  1729     0483  2CA2               	goto	l1622
  1730     0484                     u1170:
  1731     0484                     l1620:
  1732     0484  0822               	movf	fputc@fp,w
  1733     0485  3E09               	addlw	9
  1734     0486  0084               	movwf	4
  1735     0487  0800               	movf	0,w
  1736     0488  00A3               	movwf	??_fputc
  1737     0489  0A84               	incf	4,f
  1738     048A  0800               	movf	0,w
  1739     048B  00A4               	movwf	??_fputc+1
  1740     048C  0822               	movf	fputc@fp,w
  1741     048D  3E02               	addlw	2
  1742     048E  0084               	movwf	4
  1743     048F  0800               	movf	0,w
  1744     0490  00A5               	movwf	??_fputc+2
  1745     0491  0A84               	incf	4,f
  1746     0492  0800               	movf	0,w
  1747     0493  00A6               	movwf	??_fputc+3
  1748     0494  0826               	movf	??_fputc+3,w
  1749     0495  3A80               	xorlw	128
  1750     0496  00A7               	movwf	??_fputc+4
  1751     0497  0824               	movf	??_fputc+1,w
  1752     0498  3A80               	xorlw	128
  1753     0499  0227               	subwf	??_fputc+4,w
  1754     049A  1D03               	skipz
  1755     049B  2C9E               	goto	u1185
  1756     049C  0823               	movf	??_fputc,w
  1757     049D  0225               	subwf	??_fputc+2,w
  1758     049E                     u1185:
  1759     049E  1803               	skipnc
  1760     049F  2CA1               	goto	u1181
  1761     04A0  2CA2               	goto	u1180
  1762     04A1                     u1181:
  1763     04A1  2CBB               	goto	l850
  1764     04A2                     u1180:
  1765     04A2                     l1622:
  1766     04A2  1283               	bcf	3,5	;RP0=0, select bank0
  1767     04A3  1303               	bcf	3,6	;RP1=0, select bank0
  1768     04A4  0822               	movf	fputc@fp,w
  1769     04A5  3E02               	addlw	2
  1770     04A6  0084               	movwf	4
  1771     04A7  1383               	bcf	3,7	;select IRP bank0
  1772     04A8  0800               	movf	0,w
  1773     04A9  00A3               	movwf	??_fputc
  1774     04AA  0822               	movf	fputc@fp,w
  1775     04AB  0084               	movwf	4
  1776     04AC  0800               	movf	0,w
  1777     04AD  0723               	addwf	??_fputc,w
  1778     04AE  00A4               	movwf	??_fputc+1
  1779     04AF  0824               	movf	??_fputc+1,w
  1780     04B0  0084               	movwf	4
  1781     04B1  0820               	movf	fputc@c,w
  1782     04B2  0080               	movwf	0
  1783     04B3  0822               	movf	fputc@fp,w
  1784     04B4  3E02               	addlw	2
  1785     04B5  0084               	movwf	4
  1786     04B6  3001               	movlw	1
  1787     04B7  0780               	addwf	0,f
  1788     04B8  0A84               	incf	4,f
  1789     04B9  1803               	skipnc
  1790     04BA  0A80               	incf	0,f
  1791     04BB                     l850:
  1792     04BB  0008               	return
  1793     04BC                     __end_of_fputc:
  1794                           
  1795                           	psect	text5
  1796     0125                     __ptext5:	
  1797 ;; *************** function _putch *****************
  1798 ;; Defined at:
  1799 ;;		line 369 in file "lcd.c"
  1800 ;; Parameters:    Size  Location     Type
  1801 ;;  c               1    wreg     unsigned char 
  1802 ;; Auto vars:     Size  Location     Type
  1803 ;;  c               1   12[COMMON] unsigned char 
  1804 ;; Return value:  Size  Location     Type
  1805 ;;                  1    wreg      void 
  1806 ;; Registers used:
  1807 ;;		wreg, fsr0l, fsr0h, status,2, status,0, pclath, cstack
  1808 ;; Tracked objects:
  1809 ;;		On entry : 0/0
  1810 ;;		On exit  : 0/0
  1811 ;;		Unchanged: 0/0
  1812 ;; Data sizes:     COMMON   BANK0   BANK1   BANK3   BANK2
  1813 ;;      Params:         0       0       0       0       0
  1814 ;;      Locals:         1       0       0       0       0
  1815 ;;      Temps:          0       0       0       0       0
  1816 ;;      Totals:         1       0       0       0       0
  1817 ;;Total ram usage:        1 bytes
  1818 ;; Hardware stack levels used: 1
  1819 ;; Hardware stack levels required when called: 4
  1820 ;; This function calls:
  1821 ;;		_lcd_putc
  1822 ;; This function is called by:
  1823 ;;		_fputc
  1824 ;; This function uses a non-reentrant model
  1825 ;;
  1826                           
  1827     0125                     _putch:	
  1828                           ;psect for function _putch
  1829                           
  1830                           
  1831                           ;incstack = 0
  1832 ;; hardware stack exceeded
  1833                           ; Regs used in _putch: [wreg-fsr0h+status,2+status,0+pclath+cstack]
  1834                           ;putch@c stored from wreg
  1835     0125  00FC               	movwf	putch@c
  1836     0126                     l1528:
  1837                           
  1838                           ;lcd.c: 369: void putch(char c);lcd.c: 370: {;lcd.c: 371:     lcd_putc(c);
  1839     0126  087C               	movf	putch@c,w
  1840     0127  120A  118A  23B1  120A  118A  	fcall	_lcd_putc
  1841     012C                     l238:
  1842     012C  0008               	return
  1843     012D                     __end_of_putch:
  1844                           
  1845                           	psect	text6
  1846     0135                     __ptext6:	
  1847 ;; *************** function _abs *****************
  1848 ;; Defined at:
  1849 ;;		line 1 in file "C:\Program Files\Microchip\xc8\v2.45\pic\sources\c99\common\abs.c"
  1850 ;; Parameters:    Size  Location     Type
  1851 ;;  a               2    6[COMMON] int 
  1852 ;; Auto vars:     Size  Location     Type
  1853 ;;		None
  1854 ;; Return value:  Size  Location     Type
  1855 ;;                  2    6[COMMON] int 
  1856 ;; Registers used:
  1857 ;;		wreg, status,2, status,0
  1858 ;; Tracked objects:
  1859 ;;		On entry : 0/0
  1860 ;;		On exit  : 0/0
  1861 ;;		Unchanged: 0/0
  1862 ;; Data sizes:     COMMON   BANK0   BANK1   BANK3   BANK2
  1863 ;;      Params:         2       0       0       0       0
  1864 ;;      Locals:         0       0       0       0       0
  1865 ;;      Temps:          2       0       0       0       0
  1866 ;;      Totals:         4       0       0       0       0
  1867 ;;Total ram usage:        4 bytes
  1868 ;; Hardware stack levels used: 1
  1869 ;; This function calls:
  1870 ;;		Nothing
  1871 ;; This function is called by:
  1872 ;;		_vfpfcnvrt
  1873 ;; This function uses a non-reentrant model
  1874 ;;
  1875                           
  1876     0135                     _abs:	
  1877                           ;psect for function _abs
  1878                           
  1879     0135                     l1626:	
  1880                           ;incstack = 0
  1881                           ; Regs used in _abs: [wreg+status,2+status,0]
  1882                           
  1883     0135  1BF7               	btfsc	abs@a+1,7
  1884     0136  2938               	goto	u1191
  1885     0137  2939               	goto	u1190
  1886     0138                     u1191:
  1887     0138  293A               	goto	l1630
  1888     0139                     u1190:
  1889     0139                     l1628:
  1890     0139  2945               	goto	l838
  1891     013A                     l1630:
  1892     013A  0976               	comf	abs@a,w
  1893     013B  00F8               	movwf	??_abs
  1894     013C  0977               	comf	abs@a+1,w
  1895     013D  00F9               	movwf	??_abs+1
  1896     013E  0AF8               	incf	??_abs,f
  1897     013F  1903               	skipnz
  1898     0140  0AF9               	incf	??_abs+1,f
  1899     0141  0878               	movf	??_abs,w
  1900     0142  00F6               	movwf	?_abs
  1901     0143  0879               	movf	??_abs+1,w
  1902     0144  00F7               	movwf	?_abs+1
  1903     0145                     l838:
  1904     0145  0008               	return
  1905     0146                     __end_of_abs:
  1906                           
  1907                           	psect	text7
  1908     0409                     __ptext7:	
  1909 ;; *************** function ___awmod *****************
  1910 ;; Defined at:
  1911 ;;		line 5 in file "C:\Program Files\Microchip\xc8\v2.45\pic\sources\c99\common\awmod.c"
  1912 ;; Parameters:    Size  Location     Type
  1913 ;;  divisor         2    0[COMMON] int 
  1914 ;;  dividend        2    2[COMMON] int 
  1915 ;; Auto vars:     Size  Location     Type
  1916 ;;  sign            1    5[COMMON] unsigned char 
  1917 ;;  counter         1    4[COMMON] unsigned char 
  1918 ;; Return value:  Size  Location     Type
  1919 ;;                  2    0[COMMON] int 
  1920 ;; Registers used:
  1921 ;;		wreg, status,2, status,0, btemp+1
  1922 ;; Tracked objects:
  1923 ;;		On entry : 0/0
  1924 ;;		On exit  : 0/0
  1925 ;;		Unchanged: 0/0
  1926 ;; Data sizes:     COMMON   BANK0   BANK1   BANK3   BANK2
  1927 ;;      Params:         4       0       0       0       0
  1928 ;;      Locals:         2       0       0       0       0
  1929 ;;      Temps:          0       0       0       0       0
  1930 ;;      Totals:         6       0       0       0       0
  1931 ;;Total ram usage:        6 bytes
  1932 ;; Hardware stack levels used: 1
  1933 ;; This function calls:
  1934 ;;		Nothing
  1935 ;; This function is called by:
  1936 ;;		_vfpfcnvrt
  1937 ;; This function uses a non-reentrant model
  1938 ;;
  1939                           
  1940     0409                     ___awmod:	
  1941                           ;psect for function ___awmod
  1942                           
  1943     0409                     l1574:	
  1944                           ;incstack = 0
  1945                           ; Regs used in ___awmod: [wreg+status,2+status,0+btemp+1]
  1946                           
  1947     0409  01F5               	clrf	___awmod@sign
  1948     040A                     l1576:
  1949     040A  1FF3               	btfss	___awmod@dividend+1,7
  1950     040B  2C0D               	goto	u1061
  1951     040C  2C0E               	goto	u1060
  1952     040D                     u1061:
  1953     040D  2C15               	goto	l1582
  1954     040E                     u1060:
  1955     040E                     l1578:
  1956     040E  09F2               	comf	___awmod@dividend,f
  1957     040F  09F3               	comf	___awmod@dividend+1,f
  1958     0410  0AF2               	incf	___awmod@dividend,f
  1959     0411  1903               	skipnz
  1960     0412  0AF3               	incf	___awmod@dividend+1,f
  1961     0413                     l1580:
  1962     0413  01F5               	clrf	___awmod@sign
  1963     0414  0AF5               	incf	___awmod@sign,f
  1964     0415                     l1582:
  1965     0415  1FF1               	btfss	___awmod@divisor+1,7
  1966     0416  2C18               	goto	u1071
  1967     0417  2C19               	goto	u1070
  1968     0418                     u1071:
  1969     0418  2C1E               	goto	l1586
  1970     0419                     u1070:
  1971     0419                     l1584:
  1972     0419  09F0               	comf	___awmod@divisor,f
  1973     041A  09F1               	comf	___awmod@divisor+1,f
  1974     041B  0AF0               	incf	___awmod@divisor,f
  1975     041C  1903               	skipnz
  1976     041D  0AF1               	incf	___awmod@divisor+1,f
  1977     041E                     l1586:
  1978     041E  0870               	movf	___awmod@divisor,w
  1979     041F  0471               	iorwf	___awmod@divisor+1,w
  1980     0420  1903               	btfsc	3,2
  1981     0421  2C23               	goto	u1081
  1982     0422  2C24               	goto	u1080
  1983     0423                     u1081:
  1984     0423  2C53               	goto	l1604
  1985     0424                     u1080:
  1986     0424                     l1588:
  1987     0424  01F4               	clrf	___awmod@counter
  1988     0425  0AF4               	incf	___awmod@counter,f
  1989     0426  2C32               	goto	l1594
  1990     0427                     l1590:
  1991     0427  3001               	movlw	1
  1992     0428                     u1095:
  1993     0428  1003               	clrc
  1994     0429  0DF0               	rlf	___awmod@divisor,f
  1995     042A  0DF1               	rlf	___awmod@divisor+1,f
  1996     042B  3EFF               	addlw	-1
  1997     042C  1D03               	skipz
  1998     042D  2C28               	goto	u1095
  1999     042E                     l1592:
  2000     042E  3001               	movlw	1
  2001     042F  00FF               	movwf	btemp+1
  2002     0430  087F               	movf	btemp+1,w
  2003     0431  07F4               	addwf	___awmod@counter,f
  2004     0432                     l1594:
  2005     0432  1FF1               	btfss	___awmod@divisor+1,7
  2006     0433  2C35               	goto	u1101
  2007     0434  2C36               	goto	u1100
  2008     0435                     u1101:
  2009     0435  2C27               	goto	l1590
  2010     0436                     u1100:
  2011     0436                     l1596:
  2012     0436  0871               	movf	___awmod@divisor+1,w
  2013     0437  0273               	subwf	___awmod@dividend+1,w
  2014     0438  1D03               	skipz
  2015     0439  2C3C               	goto	u1115
  2016     043A  0870               	movf	___awmod@divisor,w
  2017     043B  0272               	subwf	___awmod@dividend,w
  2018     043C                     u1115:
  2019     043C  1C03               	skipc
  2020     043D  2C3F               	goto	u1111
  2021     043E  2C40               	goto	u1110
  2022     043F                     u1111:
  2023     043F  2C46               	goto	l1600
  2024     0440                     u1110:
  2025     0440                     l1598:
  2026     0440  0870               	movf	___awmod@divisor,w
  2027     0441  02F2               	subwf	___awmod@dividend,f
  2028     0442  0871               	movf	___awmod@divisor+1,w
  2029     0443  1C03               	skipc
  2030     0444  03F3               	decf	___awmod@dividend+1,f
  2031     0445  02F3               	subwf	___awmod@dividend+1,f
  2032     0446                     l1600:
  2033     0446  3001               	movlw	1
  2034     0447                     u1125:
  2035     0447  1003               	clrc
  2036     0448  0CF1               	rrf	___awmod@divisor+1,f
  2037     0449  0CF0               	rrf	___awmod@divisor,f
  2038     044A  3EFF               	addlw	-1
  2039     044B  1D03               	skipz
  2040     044C  2C47               	goto	u1125
  2041     044D                     l1602:
  2042     044D  3001               	movlw	1
  2043     044E  02F4               	subwf	___awmod@counter,f
  2044     044F  1D03               	btfss	3,2
  2045     0450  2C52               	goto	u1131
  2046     0451  2C53               	goto	u1130
  2047     0452                     u1131:
  2048     0452  2C36               	goto	l1596
  2049     0453                     u1130:
  2050     0453                     l1604:
  2051     0453  0875               	movf	___awmod@sign,w
  2052     0454  1903               	btfsc	3,2
  2053     0455  2C57               	goto	u1141
  2054     0456  2C58               	goto	u1140
  2055     0457                     u1141:
  2056     0457  2C5D               	goto	l1608
  2057     0458                     u1140:
  2058     0458                     l1606:
  2059     0458  09F2               	comf	___awmod@dividend,f
  2060     0459  09F3               	comf	___awmod@dividend+1,f
  2061     045A  0AF2               	incf	___awmod@dividend,f
  2062     045B  1903               	skipnz
  2063     045C  0AF3               	incf	___awmod@dividend+1,f
  2064     045D                     l1608:
  2065     045D  0873               	movf	___awmod@dividend+1,w
  2066     045E  00F1               	movwf	?___awmod+1
  2067     045F  0872               	movf	___awmod@dividend,w
  2068     0460  00F0               	movwf	?___awmod
  2069     0461                     l490:
  2070     0461  0008               	return
  2071     0462                     __end_of___awmod:
  2072                           
  2073                           	psect	text8
  2074     04BC                     __ptext8:	
  2075 ;; *************** function ___awdiv *****************
  2076 ;; Defined at:
  2077 ;;		line 5 in file "C:\Program Files\Microchip\xc8\v2.45\pic\sources\c99\common\awdiv.c"
  2078 ;; Parameters:    Size  Location     Type
  2079 ;;  divisor         2    0[COMMON] int 
  2080 ;;  dividend        2    2[COMMON] int 
  2081 ;; Auto vars:     Size  Location     Type
  2082 ;;  quotient        2    6[COMMON] int 
  2083 ;;  sign            1    5[COMMON] unsigned char 
  2084 ;;  counter         1    4[COMMON] unsigned char 
  2085 ;; Return value:  Size  Location     Type
  2086 ;;                  2    0[COMMON] int 
  2087 ;; Registers used:
  2088 ;;		wreg, status,2, status,0, btemp+1
  2089 ;; Tracked objects:
  2090 ;;		On entry : 0/0
  2091 ;;		On exit  : 0/0
  2092 ;;		Unchanged: 0/0
  2093 ;; Data sizes:     COMMON   BANK0   BANK1   BANK3   BANK2
  2094 ;;      Params:         4       0       0       0       0
  2095 ;;      Locals:         4       0       0       0       0
  2096 ;;      Temps:          0       0       0       0       0
  2097 ;;      Totals:         8       0       0       0       0
  2098 ;;Total ram usage:        8 bytes
  2099 ;; Hardware stack levels used: 1
  2100 ;; This function calls:
  2101 ;;		Nothing
  2102 ;; This function is called by:
  2103 ;;		_vfpfcnvrt
  2104 ;; This function uses a non-reentrant model
  2105 ;;
  2106                           
  2107     04BC                     ___awdiv:	
  2108                           ;psect for function ___awdiv
  2109                           
  2110     04BC                     l1530:	
  2111                           ;incstack = 0
  2112                           ; Regs used in ___awdiv: [wreg+status,2+status,0+btemp+1]
  2113                           
  2114     04BC  01F5               	clrf	___awdiv@sign
  2115     04BD                     l1532:
  2116     04BD  1FF1               	btfss	___awdiv@divisor+1,7
  2117     04BE  2CC0               	goto	u961
  2118     04BF  2CC1               	goto	u960
  2119     04C0                     u961:
  2120     04C0  2CC8               	goto	l1538
  2121     04C1                     u960:
  2122     04C1                     l1534:
  2123     04C1  09F0               	comf	___awdiv@divisor,f
  2124     04C2  09F1               	comf	___awdiv@divisor+1,f
  2125     04C3  0AF0               	incf	___awdiv@divisor,f
  2126     04C4  1903               	skipnz
  2127     04C5  0AF1               	incf	___awdiv@divisor+1,f
  2128     04C6                     l1536:
  2129     04C6  01F5               	clrf	___awdiv@sign
  2130     04C7  0AF5               	incf	___awdiv@sign,f
  2131     04C8                     l1538:
  2132     04C8  1FF3               	btfss	___awdiv@dividend+1,7
  2133     04C9  2CCB               	goto	u971
  2134     04CA  2CCC               	goto	u970
  2135     04CB                     u971:
  2136     04CB  2CD5               	goto	l1544
  2137     04CC                     u970:
  2138     04CC                     l1540:
  2139     04CC  09F2               	comf	___awdiv@dividend,f
  2140     04CD  09F3               	comf	___awdiv@dividend+1,f
  2141     04CE  0AF2               	incf	___awdiv@dividend,f
  2142     04CF  1903               	skipnz
  2143     04D0  0AF3               	incf	___awdiv@dividend+1,f
  2144     04D1                     l1542:
  2145     04D1  3001               	movlw	1
  2146     04D2  00FF               	movwf	btemp+1
  2147     04D3  087F               	movf	btemp+1,w
  2148     04D4  06F5               	xorwf	___awdiv@sign,f
  2149     04D5                     l1544:
  2150     04D5  01F6               	clrf	___awdiv@quotient
  2151     04D6  01F7               	clrf	___awdiv@quotient+1
  2152     04D7                     l1546:
  2153     04D7  0870               	movf	___awdiv@divisor,w
  2154     04D8  0471               	iorwf	___awdiv@divisor+1,w
  2155     04D9  1903               	btfsc	3,2
  2156     04DA  2CDC               	goto	u981
  2157     04DB  2CDD               	goto	u980
  2158     04DC                     u981:
  2159     04DC  2D14               	goto	l1566
  2160     04DD                     u980:
  2161     04DD                     l1548:
  2162     04DD  01F4               	clrf	___awdiv@counter
  2163     04DE  0AF4               	incf	___awdiv@counter,f
  2164     04DF  2CEB               	goto	l1554
  2165     04E0                     l1550:
  2166     04E0  3001               	movlw	1
  2167     04E1                     u995:
  2168     04E1  1003               	clrc
  2169     04E2  0DF0               	rlf	___awdiv@divisor,f
  2170     04E3  0DF1               	rlf	___awdiv@divisor+1,f
  2171     04E4  3EFF               	addlw	-1
  2172     04E5  1D03               	skipz
  2173     04E6  2CE1               	goto	u995
  2174     04E7                     l1552:
  2175     04E7  3001               	movlw	1
  2176     04E8  00FF               	movwf	btemp+1
  2177     04E9  087F               	movf	btemp+1,w
  2178     04EA  07F4               	addwf	___awdiv@counter,f
  2179     04EB                     l1554:
  2180     04EB  1FF1               	btfss	___awdiv@divisor+1,7
  2181     04EC  2CEE               	goto	u1001
  2182     04ED  2CEF               	goto	u1000
  2183     04EE                     u1001:
  2184     04EE  2CE0               	goto	l1550
  2185     04EF                     u1000:
  2186     04EF                     l1556:
  2187     04EF  3001               	movlw	1
  2188     04F0                     u1015:
  2189     04F0  1003               	clrc
  2190     04F1  0DF6               	rlf	___awdiv@quotient,f
  2191     04F2  0DF7               	rlf	___awdiv@quotient+1,f
  2192     04F3  3EFF               	addlw	-1
  2193     04F4  1D03               	skipz
  2194     04F5  2CF0               	goto	u1015
  2195     04F6  0871               	movf	___awdiv@divisor+1,w
  2196     04F7  0273               	subwf	___awdiv@dividend+1,w
  2197     04F8  1D03               	skipz
  2198     04F9  2CFC               	goto	u1025
  2199     04FA  0870               	movf	___awdiv@divisor,w
  2200     04FB  0272               	subwf	___awdiv@dividend,w
  2201     04FC                     u1025:
  2202     04FC  1C03               	skipc
  2203     04FD  2CFF               	goto	u1021
  2204     04FE  2D00               	goto	u1020
  2205     04FF                     u1021:
  2206     04FF  2D07               	goto	l1562
  2207     0500                     u1020:
  2208     0500                     l1558:
  2209     0500  0870               	movf	___awdiv@divisor,w
  2210     0501  02F2               	subwf	___awdiv@dividend,f
  2211     0502  0871               	movf	___awdiv@divisor+1,w
  2212     0503  1C03               	skipc
  2213     0504  03F3               	decf	___awdiv@dividend+1,f
  2214     0505  02F3               	subwf	___awdiv@dividend+1,f
  2215     0506                     l1560:
  2216     0506  1476               	bsf	___awdiv@quotient,0
  2217     0507                     l1562:
  2218     0507  3001               	movlw	1
  2219     0508                     u1035:
  2220     0508  1003               	clrc
  2221     0509  0CF1               	rrf	___awdiv@divisor+1,f
  2222     050A  0CF0               	rrf	___awdiv@divisor,f
  2223     050B  3EFF               	addlw	-1
  2224     050C  1D03               	skipz
  2225     050D  2D08               	goto	u1035
  2226     050E                     l1564:
  2227     050E  3001               	movlw	1
  2228     050F  02F4               	subwf	___awdiv@counter,f
  2229     0510  1D03               	btfss	3,2
  2230     0511  2D13               	goto	u1041
  2231     0512  2D14               	goto	u1040
  2232     0513                     u1041:
  2233     0513  2CEF               	goto	l1556
  2234     0514                     u1040:
  2235     0514                     l1566:
  2236     0514  0875               	movf	___awdiv@sign,w
  2237     0515  1903               	btfsc	3,2
  2238     0516  2D18               	goto	u1051
  2239     0517  2D19               	goto	u1050
  2240     0518                     u1051:
  2241     0518  2D1E               	goto	l1570
  2242     0519                     u1050:
  2243     0519                     l1568:
  2244     0519  09F6               	comf	___awdiv@quotient,f
  2245     051A  09F7               	comf	___awdiv@quotient+1,f
  2246     051B  0AF6               	incf	___awdiv@quotient,f
  2247     051C  1903               	skipnz
  2248     051D  0AF7               	incf	___awdiv@quotient+1,f
  2249     051E                     l1570:
  2250     051E  0877               	movf	___awdiv@quotient+1,w
  2251     051F  00F1               	movwf	?___awdiv+1
  2252     0520  0876               	movf	___awdiv@quotient,w
  2253     0521  00F0               	movwf	?___awdiv
  2254     0522                     l477:
  2255     0522  0008               	return
  2256     0523                     __end_of___awdiv:
  2257                           
  2258                           	psect	text9
  2259     02AE                     __ptext9:	
  2260 ;; *************** function _lcd_puts *****************
  2261 ;; Defined at:
  2262 ;;		line 225 in file "lcd.c"
  2263 ;; Parameters:    Size  Location     Type
  2264 ;;  s               2   12[COMMON] PTR const unsigned char 
  2265 ;;		 -> main@buffer(16), STR_4(5), STR_3(7), STR_2(4), 
  2266 ;;		 -> STR_1(21), 
  2267 ;; Auto vars:     Size  Location     Type
  2268 ;;		None
  2269 ;; Return value:  Size  Location     Type
  2270 ;;                  1    wreg      void 
  2271 ;; Registers used:
  2272 ;;		wreg, fsr0l, fsr0h, status,2, status,0, btemp+1, pclath, cstack
  2273 ;; Tracked objects:
  2274 ;;		On entry : 0/0
  2275 ;;		On exit  : 0/0
  2276 ;;		Unchanged: 0/0
  2277 ;; Data sizes:     COMMON   BANK0   BANK1   BANK3   BANK2
  2278 ;;      Params:         2       0       0       0       0
  2279 ;;      Locals:         0       0       0       0       0
  2280 ;;      Temps:          0       0       0       0       0
  2281 ;;      Totals:         2       0       0       0       0
  2282 ;;Total ram usage:        2 bytes
  2283 ;; Hardware stack levels used: 1
  2284 ;; Hardware stack levels required when called: 4
  2285 ;; This function calls:
  2286 ;;		_lcd_putc
  2287 ;; This function is called by:
  2288 ;;		_main
  2289 ;; This function uses a non-reentrant model
  2290 ;;
  2291                           
  2292     02AE                     _lcd_puts:	
  2293                           ;psect for function _lcd_puts
  2294                           
  2295     02AE                     l1832:	
  2296                           ;incstack = 0
  2297                           ; Regs used in _lcd_puts: [wreg-fsr0h+status,2+status,0+btemp+1+pclath+cstack]
  2298                           
  2299                           
  2300                           ;lcd.c: 225: void lcd_puts(const char* s);lcd.c: 226: {;lcd.c: 230:  while(*s)
  2301     02AE  2AC3               	goto	l1838
  2302     02AF                     l1834:
  2303                           
  2304                           ;lcd.c: 231:   {;lcd.c: 232:   lcd_putc(*s++);
  2305     02AF  087D               	movf	lcd_puts@s+1,w
  2306     02B0  00FF               	movwf	btemp+1
  2307     02B1  087C               	movf	lcd_puts@s,w
  2308     02B2  0084               	movwf	4
  2309     02B3  120A  118A  2003  120A  118A  	fcall	stringtab
  2310     02B8  120A  118A  23B1  120A  118A  	fcall	_lcd_putc
  2311     02BD                     l1836:
  2312     02BD  3001               	movlw	1
  2313     02BE  07FC               	addwf	lcd_puts@s,f
  2314     02BF  1803               	skipnc
  2315     02C0  0AFD               	incf	lcd_puts@s+1,f
  2316     02C1  3000               	movlw	0
  2317     02C2  07FD               	addwf	lcd_puts@s+1,f
  2318     02C3                     l1838:
  2319                           
  2320                           ;lcd.c: 230:  while(*s)
  2321     02C3  087D               	movf	lcd_puts@s+1,w
  2322     02C4  1283               	bcf	3,5	;RP0=0, select bank0
  2323     02C5  1303               	bcf	3,6	;RP1=0, select bank0
  2324     02C6  00FF               	movwf	btemp+1
  2325     02C7  087C               	movf	lcd_puts@s,w
  2326     02C8  0084               	movwf	4
  2327     02C9  120A  118A  2003  120A  118A  	fcall	stringtab
  2328     02CE  3A00               	xorlw	0
  2329     02CF  1D03               	skipz
  2330     02D0  2AD2               	goto	u1411
  2331     02D1  2AD3               	goto	u1410
  2332     02D2                     u1411:
  2333     02D2  2AAF               	goto	l1834
  2334     02D3                     u1410:
  2335     02D3                     l193:
  2336     02D3  0008               	return
  2337     02D4                     __end_of_lcd_puts:
  2338                           
  2339                           	psect	text10
  2340     03B1                     __ptext10:	
  2341 ;; *************** function _lcd_putc *****************
  2342 ;; Defined at:
  2343 ;;		line 191 in file "lcd.c"
  2344 ;; Parameters:    Size  Location     Type
  2345 ;;  c               1    wreg     unsigned char 
  2346 ;; Auto vars:     Size  Location     Type
  2347 ;;  c               1   11[COMMON] unsigned char 
  2348 ;; Return value:  Size  Location     Type
  2349 ;;                  1    wreg      void 
  2350 ;; Registers used:
  2351 ;;		wreg, fsr0l, fsr0h, status,2, status,0, pclath, cstack
  2352 ;; Tracked objects:
  2353 ;;		On entry : 0/0
  2354 ;;		On exit  : 0/0
  2355 ;;		Unchanged: 0/0
  2356 ;; Data sizes:     COMMON   BANK0   BANK1   BANK3   BANK2
  2357 ;;      Params:         0       0       0       0       0
  2358 ;;      Locals:         1       0       0       0       0
  2359 ;;      Temps:          2       0       0       0       0
  2360 ;;      Totals:         3       0       0       0       0
  2361 ;;Total ram usage:        3 bytes
  2362 ;; Hardware stack levels used: 1
  2363 ;; Hardware stack levels required when called: 3
  2364 ;; This function calls:
  2365 ;;		_lcd_busy
  2366 ;;		_lcd_gotoxy
  2367 ;;		_lcd_put_byte
  2368 ;; This function is called by:
  2369 ;;		_main
  2370 ;;		_lcd_puts
  2371 ;;		_putch
  2372 ;;		_lcd_String_Delay
  2373 ;; This function uses a non-reentrant model
  2374 ;;
  2375                           
  2376     03B1                     _lcd_putc:	
  2377                           ;psect for function _lcd_putc
  2378                           
  2379                           
  2380                           ;incstack = 0
  2381 ;; hardware stack exceeded
  2382                           ; Regs used in _lcd_putc: [wreg-fsr0h+status,2+status,0+pclath+cstack]
  2383                           ;lcd_putc@c stored from wreg
  2384     03B1  00FB               	movwf	lcd_putc@c
  2385     03B2                     l1506:
  2386                           
  2387                           ;lcd.c: 191: void lcd_putc(char c);lcd.c: 192: {;lcd.c: 196:  switch(c)
  2388     03B2  2BF5               	goto	l1522
  2389     03B3                     l1508:
  2390                           
  2391                           ;lcd.c: 199:    lcd_put_byte(0,1);
  2392     03B3  01F3               	clrf	lcd_put_byte@b
  2393     03B4  0AF3               	incf	lcd_put_byte@b,f
  2394     03B5  3000               	movlw	0
  2395     03B6  120A  118A  2300  120A  118A  	fcall	_lcd_put_byte
  2396     03BB                     l1510:	
  2397                           ;lcd.c: 200:    while(lcd_busy());
  2398                           
  2399     03BB  120A  118A  22D4  120A  118A  	fcall	_lcd_busy
  2400     03C0  3A00               	xorlw	0
  2401     03C1  1D03               	skipz
  2402     03C2  2BC4               	goto	u931
  2403     03C3  2BC5               	goto	u930
  2404     03C4                     u931:
  2405     03C4  2BBB               	goto	l1510
  2406     03C5                     u930:
  2407     03C5  2C08               	goto	l187
  2408     03C6                     l1512:
  2409                           
  2410                           ;lcd.c: 203:    lcd_gotoxy(0,1);
  2411     03C6  01F6               	clrf	lcd_gotoxy@row
  2412     03C7  0AF6               	incf	lcd_gotoxy@row,f
  2413     03C8  3000               	movlw	0
  2414     03C9  120A  118A  2337  120A  118A  	fcall	_lcd_gotoxy
  2415                           
  2416                           ;lcd.c: 204:    break;
  2417     03CE  2C08               	goto	l187
  2418     03CF                     l1514:
  2419                           
  2420                           ;lcd.c: 206:    lcd_put_byte(0,0x10);
  2421     03CF  3010               	movlw	16
  2422     03D0  00F3               	movwf	lcd_put_byte@b
  2423     03D1  3000               	movlw	0
  2424     03D2  120A  118A  2300  120A  118A  	fcall	_lcd_put_byte
  2425     03D7                     l1516:	
  2426                           ;lcd.c: 207:    while(lcd_busy());
  2427                           
  2428     03D7  120A  118A  22D4  120A  118A  	fcall	_lcd_busy
  2429     03DC  3A00               	xorlw	0
  2430     03DD  1D03               	skipz
  2431     03DE  2BE0               	goto	u941
  2432     03DF  2BE1               	goto	u940
  2433     03E0                     u941:
  2434     03E0  2BD7               	goto	l1516
  2435     03E1                     u940:
  2436     03E1  2C08               	goto	l187
  2437     03E2                     l1518:
  2438                           
  2439                           ;lcd.c: 211:     {;lcd.c: 212:     lcd_put_byte(1,c);
  2440     03E2  087B               	movf	lcd_putc@c,w
  2441     03E3  00F3               	movwf	lcd_put_byte@b
  2442     03E4  3001               	movlw	1
  2443     03E5  120A  118A  2300  120A  118A  	fcall	_lcd_put_byte
  2444     03EA                     l1520:	
  2445                           ;lcd.c: 213:     while(lcd_busy());
  2446                           
  2447     03EA  120A  118A  22D4  120A  118A  	fcall	_lcd_busy
  2448     03EF  3A00               	xorlw	0
  2449     03F0  1D03               	skipz
  2450     03F1  2BF3               	goto	u951
  2451     03F2  2BF4               	goto	u950
  2452     03F3                     u951:
  2453     03F3  2BEA               	goto	l1520
  2454     03F4                     u950:
  2455     03F4  2C08               	goto	l187
  2456     03F5                     l1522:
  2457     03F5  087B               	movf	lcd_putc@c,w
  2458     03F6  00F9               	movwf	??_lcd_putc
  2459     03F7  01FA               	clrf	??_lcd_putc+1
  2460                           
  2461                           ; Switch on 2 bytes has been partitioned into a top level switch of size 1, and 1 sub-sw
      +                          itches
  2462                           ; Switch size 1, requested type "simple"
  2463                           ; Number of cases is 1, Range of values is 0 to 0
  2464                           ; switch strategies available:
  2465                           ; Name         Instructions Cycles
  2466                           ; simple_byte            4     3 (average)
  2467                           ; direct_byte           11     8 (fixed)
  2468                           ; jumptable            260     6 (fixed)
  2469                           ;	Chosen strategy is simple_byte
  2470     03F8  087A               	movf	??_lcd_putc+1,w
  2471     03F9  3A00               	xorlw	0	; case 0
  2472     03FA  1903               	skipnz
  2473     03FB  2BFD               	goto	l1970
  2474     03FC  2BE2               	goto	l1518
  2475     03FD                     l1970:
  2476                           
  2477                           ; Switch size 1, requested type "simple"
  2478                           ; Number of cases is 3, Range of values is 8 to 12
  2479                           ; switch strategies available:
  2480                           ; Name         Instructions Cycles
  2481                           ; simple_byte           10     6 (average)
  2482                           ; direct_byte           26    11 (fixed)
  2483                           ; jumptable            263     9 (fixed)
  2484                           ;	Chosen strategy is simple_byte
  2485     03FD  0879               	movf	??_lcd_putc,w
  2486     03FE  3A08               	xorlw	8	; case 8
  2487     03FF  1903               	skipnz
  2488     0400  2BCF               	goto	l1514
  2489     0401  3A02               	xorlw	2	; case 10
  2490     0402  1903               	skipnz
  2491     0403  2BC6               	goto	l1512
  2492     0404  3A06               	xorlw	6	; case 12
  2493     0405  1903               	skipnz
  2494     0406  2BB3               	goto	l1508
  2495     0407  2BE2               	goto	l1518
  2496     0408                     l187:
  2497     0408  0008               	return
  2498     0409                     __end_of_lcd_putc:
  2499                           
  2500                           	psect	text11
  2501     0337                     __ptext11:	
  2502 ;; *************** function _lcd_gotoxy *****************
  2503 ;; Defined at:
  2504 ;;		line 168 in file "lcd.c"
  2505 ;; Parameters:    Size  Location     Type
  2506 ;;  col             1    wreg     unsigned char 
  2507 ;;  row             1    6[COMMON] unsigned char 
  2508 ;; Auto vars:     Size  Location     Type
  2509 ;;  col             1    8[COMMON] unsigned char 
  2510 ;;  address         1    7[COMMON] unsigned char 
  2511 ;; Return value:  Size  Location     Type
  2512 ;;                  1    wreg      void 
  2513 ;; Registers used:
  2514 ;;		wreg, status,2, status,0, pclath, cstack
  2515 ;; Tracked objects:
  2516 ;;		On entry : 0/0
  2517 ;;		On exit  : 0/0
  2518 ;;		Unchanged: 0/0
  2519 ;; Data sizes:     COMMON   BANK0   BANK1   BANK3   BANK2
  2520 ;;      Params:         1       0       0       0       0
  2521 ;;      Locals:         2       0       0       0       0
  2522 ;;      Temps:          0       0       0       0       0
  2523 ;;      Totals:         3       0       0       0       0
  2524 ;;Total ram usage:        3 bytes
  2525 ;; Hardware stack levels used: 1
  2526 ;; Hardware stack levels required when called: 2
  2527 ;; This function calls:
  2528 ;;		_lcd_busy
  2529 ;;		_lcd_put_byte
  2530 ;; This function is called by:
  2531 ;;		_main
  2532 ;;		_lcd_putc
  2533 ;; This function uses a non-reentrant model
  2534 ;;
  2535                           
  2536     0337                     _lcd_gotoxy:	
  2537                           ;psect for function _lcd_gotoxy
  2538                           
  2539                           
  2540                           ;incstack = 0
  2541 ;; hardware stack exceeded
  2542                           ; Regs used in _lcd_gotoxy: [wreg+status,2+status,0+pclath+cstack]
  2543                           ;lcd_gotoxy@col stored from wreg
  2544     0337  00F8               	movwf	lcd_gotoxy@col
  2545     0338                     l1486:
  2546                           
  2547                           ;lcd.c: 168: void lcd_gotoxy(unsigned char col, unsigned char row);lcd.c: 169: {;lcd.c: 
      +                          170:     unsigned char address;;lcd.c: 172:     if (row == 0)
  2548     0338  0876               	movf	lcd_gotoxy@row,w
  2549     0339  1D03               	btfss	3,2
  2550     033A  2B3C               	goto	u881
  2551     033B  2B3D               	goto	u880
  2552     033C                     u881:
  2553     033C  2B41               	goto	l1490
  2554     033D                     u880:
  2555     033D                     l1488:
  2556                           
  2557                           ;lcd.c: 173:         address = 0x80 + col;
  2558     033D  0878               	movf	lcd_gotoxy@col,w
  2559     033E  3E80               	addlw	128
  2560     033F  00F7               	movwf	lcd_gotoxy@address
  2561     0340  2B5E               	goto	l1502
  2562     0341                     l1490:
  2563     0341  0376               	decf	lcd_gotoxy@row,w
  2564     0342  1D03               	btfss	3,2
  2565     0343  2B45               	goto	u891
  2566     0344  2B46               	goto	u890
  2567     0345                     u891:
  2568     0345  2B4A               	goto	l1494
  2569     0346                     u890:
  2570     0346                     l1492:
  2571                           
  2572                           ;lcd.c: 175:         address = 0xC0 + col;
  2573     0346  0878               	movf	lcd_gotoxy@col,w
  2574     0347  3EC0               	addlw	192
  2575     0348  00F7               	movwf	lcd_gotoxy@address
  2576     0349  2B5E               	goto	l1502
  2577     034A                     l1494:
  2578     034A  3002               	movlw	2
  2579     034B  0676               	xorwf	lcd_gotoxy@row,w
  2580     034C  1D03               	btfss	3,2
  2581     034D  2B4F               	goto	u901
  2582     034E  2B50               	goto	u900
  2583     034F                     u901:
  2584     034F  2B54               	goto	l1498
  2585     0350                     u900:
  2586     0350                     l1496:
  2587                           
  2588                           ;lcd.c: 177:         address = 0x94 + col;
  2589     0350  0878               	movf	lcd_gotoxy@col,w
  2590     0351  3E94               	addlw	148
  2591     0352  00F7               	movwf	lcd_gotoxy@address
  2592     0353  2B5E               	goto	l1502
  2593     0354                     l1498:
  2594     0354  3003               	movlw	3
  2595     0355  0676               	xorwf	lcd_gotoxy@row,w
  2596     0356  1D03               	btfss	3,2
  2597     0357  2B59               	goto	u911
  2598     0358  2B5A               	goto	u910
  2599     0359                     u911:
  2600     0359  2B5E               	goto	l162
  2601     035A                     u910:
  2602     035A                     l1500:
  2603                           
  2604                           ;lcd.c: 179:         address = 0xD4 + col;
  2605     035A  0878               	movf	lcd_gotoxy@col,w
  2606     035B  3ED4               	addlw	212
  2607     035C  00F7               	movwf	lcd_gotoxy@address
  2608     035D  2B5E               	goto	l1502
  2609     035E                     l162:
  2610     035E                     l1502:
  2611                           
  2612                           ;lcd.c: 181:     lcd_put_byte(0, address);
  2613     035E  0877               	movf	lcd_gotoxy@address,w
  2614     035F  00F3               	movwf	lcd_put_byte@b
  2615     0360  3000               	movlw	0
  2616     0361  120A  118A  2300  120A  118A  	fcall	_lcd_put_byte
  2617     0366                     l1504:	
  2618                           ;lcd.c: 182:     while (lcd_busy());
  2619                           
  2620     0366  120A  118A  22D4  120A  118A  	fcall	_lcd_busy
  2621     036B  3A00               	xorlw	0
  2622     036C  1D03               	skipz
  2623     036D  2B6F               	goto	u921
  2624     036E  2B70               	goto	u920
  2625     036F                     u921:
  2626     036F  2B66               	goto	l1504
  2627     0370                     u920:
  2628     0370                     l169:
  2629     0370  0008               	return
  2630     0371                     __end_of_lcd_gotoxy:
  2631                           
  2632                           	psect	text12
  2633     0523                     __ptext12:	
  2634 ;; *************** function _lcd_init *****************
  2635 ;; Defined at:
  2636 ;;		line 242 in file "lcd.c"
  2637 ;; Parameters:    Size  Location     Type
  2638 ;;		None
  2639 ;; Auto vars:     Size  Location     Type
  2640 ;;  i               1    0        unsigned char 
  2641 ;; Return value:  Size  Location     Type
  2642 ;;                  1    wreg      void 
  2643 ;; Registers used:
  2644 ;;		wreg, status,2, status,0, pclath, cstack
  2645 ;; Tracked objects:
  2646 ;;		On entry : 0/0
  2647 ;;		On exit  : 0/0
  2648 ;;		Unchanged: 0/0
  2649 ;; Data sizes:     COMMON   BANK0   BANK1   BANK3   BANK2
  2650 ;;      Params:         0       0       0       0       0
  2651 ;;      Locals:         0       0       0       0       0
  2652 ;;      Temps:          2       0       0       0       0
  2653 ;;      Totals:         2       0       0       0       0
  2654 ;;Total ram usage:        2 bytes
  2655 ;; Hardware stack levels used: 1
  2656 ;; Hardware stack levels required when called: 2
  2657 ;; This function calls:
  2658 ;;		_lcd_busy
  2659 ;;		_lcd_put_byte
  2660 ;;		_lcd_put_nibble
  2661 ;; This function is called by:
  2662 ;;		_main
  2663 ;; This function uses a non-reentrant model
  2664 ;;
  2665                           
  2666     0523                     _lcd_init:	
  2667                           ;psect for function _lcd_init
  2668                           
  2669     0523                     l1794:	
  2670                           ;incstack = 0
  2671                           ; Regs used in _lcd_init: [wreg+status,2+status,0+pclath+cstack]
  2672                           
  2673                           
  2674                           ;lcd.c: 245: unsigned char i;;lcd.c: 248:  TRISD2 = 0;
  2675     0523  1683               	bsf	3,5	;RP0=1, select bank1
  2676     0524  1303               	bcf	3,6	;RP1=0, select bank1
  2677     0525  1108               	bcf	8,2	;volatile
  2678                           
  2679                           ;lcd.c: 249:  TRISD0 = 0;
  2680     0526  1008               	bcf	8,0	;volatile
  2681                           
  2682                           ;lcd.c: 250:  TRISD1 = 0;
  2683     0527  1088               	bcf	8,1	;volatile
  2684                           
  2685                           ;lcd.c: 251:  TRISD4 = 0;
  2686     0528  1208               	bcf	8,4	;volatile
  2687                           
  2688                           ;lcd.c: 252:  TRISD5 = 0;
  2689     0529  1288               	bcf	8,5	;volatile
  2690                           
  2691                           ;lcd.c: 253:  TRISD6 = 0;
  2692     052A  1308               	bcf	8,6	;volatile
  2693                           
  2694                           ;lcd.c: 254:  TRISD7 = 0;
  2695     052B  1388               	bcf	8,7	;volatile
  2696     052C                     l1796:
  2697                           
  2698                           ;lcd.c: 256:  _delay((unsigned long)((15)*(20000000/4000.0)));
  2699     052C  3062               	movlw	98
  2700     052D  00F7               	movwf	??_lcd_init+1
  2701     052E  3065               	movlw	101
  2702     052F  00F6               	movwf	??_lcd_init
  2703     0530                     u1467:
  2704     0530  0BF6               	decfsz	??_lcd_init,f
  2705     0531  2D30               	goto	u1467
  2706     0532  0BF7               	decfsz	??_lcd_init+1,f
  2707     0533  2D30               	goto	u1467
  2708     0534  2D35               	nop2
  2709     0535                     l1798:
  2710                           
  2711                           ;lcd.c: 258:  RD0 = 0;
  2712     0535  1283               	bcf	3,5	;RP0=0, select bank0
  2713     0536  1303               	bcf	3,6	;RP1=0, select bank0
  2714     0537  1008               	bcf	8,0	;volatile
  2715     0538                     l1800:
  2716                           
  2717                           ;lcd.c: 259:  RD1 = 0;
  2718     0538  1088               	bcf	8,1	;volatile
  2719     0539                     l1802:
  2720                           
  2721                           ;lcd.c: 260:  RD2 = 0;
  2722     0539  1108               	bcf	8,2	;volatile
  2723     053A                     l1804:
  2724                           
  2725                           ;lcd.c: 262:  lcd_put_nibble(3);
  2726     053A  3003               	movlw	3
  2727     053B  120A  118A  2371  120A  118A  	fcall	_lcd_put_nibble
  2728     0540                     l1806:
  2729                           
  2730                           ;lcd.c: 263:  _delay((unsigned long)((10)*(20000000/4000.0)));
  2731     0540  3041               	movlw	65
  2732     0541  00F7               	movwf	??_lcd_init+1
  2733     0542  30EE               	movlw	238
  2734     0543  00F6               	movwf	??_lcd_init
  2735     0544                     u1477:
  2736     0544  0BF6               	decfsz	??_lcd_init,f
  2737     0545  2D44               	goto	u1477
  2738     0546  0BF7               	decfsz	??_lcd_init+1,f
  2739     0547  2D44               	goto	u1477
  2740     0548  0000               	nop
  2741                           
  2742                           ;lcd.c: 264:  lcd_put_nibble(3);
  2743     0549  3003               	movlw	3
  2744     054A  120A  118A  2371  120A  118A  	fcall	_lcd_put_nibble
  2745     054F                     l1808:
  2746                           
  2747                           ;lcd.c: 265:  _delay((unsigned long)((10)*(20000000/4000.0)));
  2748     054F  3041               	movlw	65
  2749     0550  00F7               	movwf	??_lcd_init+1
  2750     0551  30EE               	movlw	238
  2751     0552  00F6               	movwf	??_lcd_init
  2752     0553                     u1487:
  2753     0553  0BF6               	decfsz	??_lcd_init,f
  2754     0554  2D53               	goto	u1487
  2755     0555  0BF7               	decfsz	??_lcd_init+1,f
  2756     0556  2D53               	goto	u1487
  2757     0557  0000               	nop
  2758     0558                     l1810:
  2759                           
  2760                           ;lcd.c: 266:  lcd_put_nibble(3);
  2761     0558  3003               	movlw	3
  2762     0559  120A  118A  2371  120A  118A  	fcall	_lcd_put_nibble
  2763                           
  2764                           ;lcd.c: 267:  _delay((unsigned long)((10)*(20000000/4000.0)));
  2765     055E  3041               	movlw	65
  2766     055F  00F7               	movwf	??_lcd_init+1
  2767     0560  30EE               	movlw	238
  2768     0561  00F6               	movwf	??_lcd_init
  2769     0562                     u1497:
  2770     0562  0BF6               	decfsz	??_lcd_init,f
  2771     0563  2D62               	goto	u1497
  2772     0564  0BF7               	decfsz	??_lcd_init+1,f
  2773     0565  2D62               	goto	u1497
  2774     0566  0000               	nop
  2775     0567                     l1812:
  2776                           
  2777                           ;lcd.c: 269:  lcd_put_nibble(2);
  2778     0567  3002               	movlw	2
  2779     0568  120A  118A  2371  120A  118A  	fcall	_lcd_put_nibble
  2780     056D                     l1814:	
  2781                           ;lcd.c: 270:  while(lcd_busy());
  2782                           
  2783     056D  120A  118A  22D4  120A  118A  	fcall	_lcd_busy
  2784     0572  3A00               	xorlw	0
  2785     0573  1D03               	skipz
  2786     0574  2D76               	goto	u1361
  2787     0575  2D77               	goto	u1360
  2788     0576                     u1361:
  2789     0576  2D6D               	goto	l1814
  2790     0577                     u1360:
  2791     0577                     l1816:
  2792                           
  2793                           ;lcd.c: 272:  lcd_put_byte(0,0b00101100 & 0b00111100);
  2794     0577  302C               	movlw	44
  2795     0578  00F3               	movwf	lcd_put_byte@b
  2796     0579  3000               	movlw	0
  2797     057A  120A  118A  2300  120A  118A  	fcall	_lcd_put_byte
  2798     057F                     l1818:	
  2799                           ;lcd.c: 273:  while(lcd_busy());
  2800                           
  2801     057F  120A  118A  22D4  120A  118A  	fcall	_lcd_busy
  2802     0584  3A00               	xorlw	0
  2803     0585  1D03               	skipz
  2804     0586  2D88               	goto	u1371
  2805     0587  2D89               	goto	u1370
  2806     0588                     u1371:
  2807     0588  2D7F               	goto	l1818
  2808     0589                     u1370:
  2809     0589                     l1820:
  2810                           
  2811                           ;lcd.c: 275:  lcd_put_byte(0,0b00001111 & 0b00001101 & 0b00001110);
  2812     0589  300C               	movlw	12
  2813     058A  00F3               	movwf	lcd_put_byte@b
  2814     058B  3000               	movlw	0
  2815     058C  120A  118A  2300  120A  118A  	fcall	_lcd_put_byte
  2816     0591                     l1822:	
  2817                           ;lcd.c: 276:  while(lcd_busy());
  2818                           
  2819     0591  120A  118A  22D4  120A  118A  	fcall	_lcd_busy
  2820     0596  3A00               	xorlw	0
  2821     0597  1D03               	skipz
  2822     0598  2D9A               	goto	u1381
  2823     0599  2D9B               	goto	u1380
  2824     059A                     u1381:
  2825     059A  2D91               	goto	l1822
  2826     059B                     u1380:
  2827     059B                     l1824:
  2828                           
  2829                           ;lcd.c: 278:  lcd_put_byte(0,0x01);
  2830     059B  01F3               	clrf	lcd_put_byte@b
  2831     059C  0AF3               	incf	lcd_put_byte@b,f
  2832     059D  3000               	movlw	0
  2833     059E  120A  118A  2300  120A  118A  	fcall	_lcd_put_byte
  2834     05A3                     l1826:	
  2835                           ;lcd.c: 279:  while(lcd_busy());
  2836                           
  2837     05A3  120A  118A  22D4  120A  118A  	fcall	_lcd_busy
  2838     05A8  3A00               	xorlw	0
  2839     05A9  1D03               	skipz
  2840     05AA  2DAC               	goto	u1391
  2841     05AB  2DAD               	goto	u1390
  2842     05AC                     u1391:
  2843     05AC  2DA3               	goto	l1826
  2844     05AD                     u1390:
  2845     05AD                     l1828:
  2846                           
  2847                           ;lcd.c: 281:  lcd_put_byte(0,0b00000110);
  2848     05AD  3006               	movlw	6
  2849     05AE  00F3               	movwf	lcd_put_byte@b
  2850     05AF  3000               	movlw	0
  2851     05B0  120A  118A  2300  120A  118A  	fcall	_lcd_put_byte
  2852     05B5                     l1830:	
  2853                           ;lcd.c: 282:  while(lcd_busy());
  2854                           
  2855     05B5  120A  118A  22D4  120A  118A  	fcall	_lcd_busy
  2856     05BA  3A00               	xorlw	0
  2857     05BB  1D03               	skipz
  2858     05BC  2DBE               	goto	u1401
  2859     05BD  2DBF               	goto	u1400
  2860     05BE                     u1401:
  2861     05BE  2DB5               	goto	l1830
  2862     05BF                     u1400:
  2863     05BF                     l211:
  2864     05BF  0008               	return
  2865     05C0                     __end_of_lcd_init:
  2866                           
  2867                           	psect	text13
  2868     0300                     __ptext13:	
  2869 ;; *************** function _lcd_put_byte *****************
  2870 ;; Defined at:
  2871 ;;		line 135 in file "lcd.c"
  2872 ;; Parameters:    Size  Location     Type
  2873 ;;  rs              1    wreg     unsigned char 
  2874 ;;  b               1    3[COMMON] unsigned char 
  2875 ;; Auto vars:     Size  Location     Type
  2876 ;;  rs              1    5[COMMON] unsigned char 
  2877 ;; Return value:  Size  Location     Type
  2878 ;;                  1    wreg      void 
  2879 ;; Registers used:
  2880 ;;		wreg, status,2, status,0, pclath, cstack
  2881 ;; Tracked objects:
  2882 ;;		On entry : 0/0
  2883 ;;		On exit  : 0/0
  2884 ;;		Unchanged: 0/0
  2885 ;; Data sizes:     COMMON   BANK0   BANK1   BANK3   BANK2
  2886 ;;      Params:         1       0       0       0       0
  2887 ;;      Locals:         1       0       0       0       0
  2888 ;;      Temps:          1       0       0       0       0
  2889 ;;      Totals:         3       0       0       0       0
  2890 ;;Total ram usage:        3 bytes
  2891 ;; Hardware stack levels used: 1
  2892 ;; Hardware stack levels required when called: 1
  2893 ;; This function calls:
  2894 ;;		_lcd_put_nibble
  2895 ;; This function is called by:
  2896 ;;		_main
  2897 ;;		_lcd_gotoxy
  2898 ;;		_lcd_putc
  2899 ;;		_lcd_init
  2900 ;;		_lcd_ShiftLeft
  2901 ;;		_lcd_ShiftRight
  2902 ;; This function uses a non-reentrant model
  2903 ;;
  2904                           
  2905     0300                     _lcd_put_byte:	
  2906                           ;psect for function _lcd_put_byte
  2907                           
  2908                           
  2909                           ;incstack = 0
  2910                           ; Regs used in _lcd_put_byte: [wreg+status,2+status,0+pclath+cstack]
  2911                           ;lcd_put_byte@rs stored from wreg
  2912     0300  00F5               	movwf	lcd_put_byte@rs
  2913     0301                     l1448:
  2914                           
  2915                           ;lcd.c: 135: void lcd_put_byte(unsigned char rs, unsigned char b);lcd.c: 136: {;lcd.c: 1
      +                          40:  TRISD4 = 0;
  2916     0301  1683               	bsf	3,5	;RP0=1, select bank1
  2917     0302  1303               	bcf	3,6	;RP1=0, select bank1
  2918     0303  1208               	bcf	8,4	;volatile
  2919                           
  2920                           ;lcd.c: 141:  TRISD5 = 0;
  2921     0304  1288               	bcf	8,5	;volatile
  2922                           
  2923                           ;lcd.c: 142:  TRISD6 = 0;
  2924     0305  1308               	bcf	8,6	;volatile
  2925                           
  2926                           ;lcd.c: 143:  TRISD7 = 0;
  2927     0306  1388               	bcf	8,7	;volatile
  2928     0307                     l1450:
  2929                           
  2930                           ;lcd.c: 145:  if(rs)
  2931     0307  0875               	movf	lcd_put_byte@rs,w
  2932     0308  1903               	btfsc	3,2
  2933     0309  2B0B               	goto	u861
  2934     030A  2B0C               	goto	u860
  2935     030B                     u861:
  2936     030B  2B10               	goto	l154
  2937     030C                     u860:
  2938     030C                     l1452:
  2939                           
  2940                           ;lcd.c: 146:   RD0 = 1;
  2941     030C  1283               	bcf	3,5	;RP0=0, select bank0
  2942     030D  1303               	bcf	3,6	;RP1=0, select bank0
  2943     030E  1408               	bsf	8,0	;volatile
  2944     030F  2B13               	goto	l1454
  2945     0310                     l154:	
  2946                           ;lcd.c: 147:  else
  2947                           
  2948                           
  2949                           ;lcd.c: 148:   RD0 = 0;
  2950     0310  1283               	bcf	3,5	;RP0=0, select bank0
  2951     0311  1303               	bcf	3,6	;RP1=0, select bank0
  2952     0312  1008               	bcf	8,0	;volatile
  2953     0313                     l1454:
  2954                           
  2955                           ;lcd.c: 149:  _delay((unsigned long)((20)*(20000000/4000000.0)));
  2956     0313  3021               	movlw	33
  2957     0314  00F4               	movwf	??_lcd_put_byte
  2958     0315                     u1507:
  2959     0315  0BF4               	decfsz	??_lcd_put_byte,f
  2960     0316  2B15               	goto	u1507
  2961     0317                     l1456:
  2962                           
  2963                           ;lcd.c: 151:  RD1 = 0;
  2964     0317  1283               	bcf	3,5	;RP0=0, select bank0
  2965     0318  1303               	bcf	3,6	;RP1=0, select bank0
  2966     0319  1088               	bcf	8,1	;volatile
  2967                           
  2968                           ;lcd.c: 152:  _delay((unsigned long)((20)*(20000000/4000000.0)));
  2969     031A  3021               	movlw	33
  2970     031B  00F4               	movwf	??_lcd_put_byte
  2971     031C                     u1517:
  2972     031C  0BF4               	decfsz	??_lcd_put_byte,f
  2973     031D  2B1C               	goto	u1517
  2974     031E                     l1458:
  2975                           
  2976                           ;lcd.c: 154:  RD2 = 0;
  2977     031E  1283               	bcf	3,5	;RP0=0, select bank0
  2978     031F  1303               	bcf	3,6	;RP1=0, select bank0
  2979     0320  1108               	bcf	8,2	;volatile
  2980     0321                     l1460:
  2981                           
  2982                           ;lcd.c: 156:  lcd_put_nibble(b >> 4);
  2983     0321  0873               	movf	lcd_put_byte@b,w
  2984     0322  00F4               	movwf	??_lcd_put_byte
  2985     0323  3004               	movlw	4
  2986     0324                     u875:
  2987     0324  1003               	clrc
  2988     0325  0CF4               	rrf	??_lcd_put_byte,f
  2989     0326  3EFF               	addlw	-1
  2990     0327  1D03               	skipz
  2991     0328  2B24               	goto	u875
  2992     0329  0874               	movf	??_lcd_put_byte,w
  2993     032A  120A  118A  2371  120A  118A  	fcall	_lcd_put_nibble
  2994     032F                     l1462:
  2995                           
  2996                           ;lcd.c: 158:  lcd_put_nibble(b & 0xf);
  2997     032F  0873               	movf	lcd_put_byte@b,w
  2998     0330  390F               	andlw	15
  2999     0331  120A  118A  2371  120A  118A  	fcall	_lcd_put_nibble
  3000     0336                     l156:
  3001     0336  0008               	return
  3002     0337                     __end_of_lcd_put_byte:
  3003                           
  3004                           	psect	text14
  3005     0371                     __ptext14:	
  3006 ;; *************** function _lcd_put_nibble *****************
  3007 ;; Defined at:
  3008 ;;		line 104 in file "lcd.c"
  3009 ;; Parameters:    Size  Location     Type
  3010 ;;  b               1    wreg     unsigned char 
  3011 ;; Auto vars:     Size  Location     Type
  3012 ;;  b               1    1[COMMON] unsigned char 
  3013 ;;  temp            1    2[COMMON] struct _BYTE_VAL
  3014 ;; Return value:  Size  Location     Type
  3015 ;;                  1    wreg      void 
  3016 ;; Registers used:
  3017 ;;		wreg
  3018 ;; Tracked objects:
  3019 ;;		On entry : 0/0
  3020 ;;		On exit  : 0/0
  3021 ;;		Unchanged: 0/0
  3022 ;; Data sizes:     COMMON   BANK0   BANK1   BANK3   BANK2
  3023 ;;      Params:         0       0       0       0       0
  3024 ;;      Locals:         2       0       0       0       0
  3025 ;;      Temps:          1       0       0       0       0
  3026 ;;      Totals:         3       0       0       0       0
  3027 ;;Total ram usage:        3 bytes
  3028 ;; Hardware stack levels used: 1
  3029 ;; This function calls:
  3030 ;;		Nothing
  3031 ;; This function is called by:
  3032 ;;		_lcd_put_byte
  3033 ;;		_lcd_init
  3034 ;; This function uses a non-reentrant model
  3035 ;;
  3036                           
  3037     0371                     _lcd_put_nibble:	
  3038                           ;psect for function _lcd_put_nibble
  3039                           
  3040                           
  3041                           ;incstack = 0
  3042                           ; Regs used in _lcd_put_nibble: [wreg]
  3043                           ;lcd_put_nibble@b stored from wreg
  3044     0371  00F1               	movwf	lcd_put_nibble@b
  3045     0372                     l1432:
  3046                           
  3047                           ;lcd.c: 104: void lcd_put_nibble(unsigned char b);lcd.c: 105: {;lcd.c: 107:  BYTE_VAL te
      +                          mp;;lcd.c: 110:  TRISD4 = 0;
  3048     0372  1683               	bsf	3,5	;RP0=1, select bank1
  3049     0373  1303               	bcf	3,6	;RP1=0, select bank1
  3050     0374  1208               	bcf	8,4	;volatile
  3051                           
  3052                           ;lcd.c: 111:  TRISD5 = 0;
  3053     0375  1288               	bcf	8,5	;volatile
  3054                           
  3055                           ;lcd.c: 112:  TRISD6 = 0;
  3056     0376  1308               	bcf	8,6	;volatile
  3057                           
  3058                           ;lcd.c: 113:  TRISD7 = 0;
  3059     0377  1388               	bcf	8,7	;volatile
  3060     0378                     l1434:
  3061                           
  3062                           ;lcd.c: 115:  temp.Val = b;
  3063     0378  0871               	movf	lcd_put_nibble@b,w
  3064     0379  00F2               	movwf	lcd_put_nibble@temp
  3065     037A                     l1436:
  3066                           
  3067                           ;lcd.c: 117:  RD4 = temp.bits.b0;
  3068     037A  1872               	btfsc	lcd_put_nibble@temp,0
  3069     037B  2B7D               	goto	u781
  3070     037C  2B81               	goto	u780
  3071     037D                     u781:
  3072     037D  1283               	bcf	3,5	;RP0=0, select bank0
  3073     037E  1303               	bcf	3,6	;RP1=0, select bank0
  3074     037F  1608               	bsf	8,4	;volatile
  3075     0380  2B84               	goto	u794
  3076     0381                     u780:
  3077     0381  1283               	bcf	3,5	;RP0=0, select bank0
  3078     0382  1303               	bcf	3,6	;RP1=0, select bank0
  3079     0383  1208               	bcf	8,4	;volatile
  3080     0384                     u794:
  3081     0384                     l1438:
  3082                           
  3083                           ;lcd.c: 118:  RD5 = temp.bits.b1;
  3084     0384  18F2               	btfsc	lcd_put_nibble@temp,1
  3085     0385  2B87               	goto	u801
  3086     0386  2B8B               	goto	u800
  3087     0387                     u801:
  3088     0387  1283               	bcf	3,5	;RP0=0, select bank0
  3089     0388  1303               	bcf	3,6	;RP1=0, select bank0
  3090     0389  1688               	bsf	8,5	;volatile
  3091     038A  2B8E               	goto	u814
  3092     038B                     u800:
  3093     038B  1283               	bcf	3,5	;RP0=0, select bank0
  3094     038C  1303               	bcf	3,6	;RP1=0, select bank0
  3095     038D  1288               	bcf	8,5	;volatile
  3096     038E                     u814:
  3097     038E                     l1440:
  3098                           
  3099                           ;lcd.c: 119:  RD6 = temp.bits.b2;
  3100     038E  1972               	btfsc	lcd_put_nibble@temp,2
  3101     038F  2B91               	goto	u821
  3102     0390  2B95               	goto	u820
  3103     0391                     u821:
  3104     0391  1283               	bcf	3,5	;RP0=0, select bank0
  3105     0392  1303               	bcf	3,6	;RP1=0, select bank0
  3106     0393  1708               	bsf	8,6	;volatile
  3107     0394  2B98               	goto	u834
  3108     0395                     u820:
  3109     0395  1283               	bcf	3,5	;RP0=0, select bank0
  3110     0396  1303               	bcf	3,6	;RP1=0, select bank0
  3111     0397  1308               	bcf	8,6	;volatile
  3112     0398                     u834:
  3113     0398                     l1442:
  3114                           
  3115                           ;lcd.c: 120:  RD7 = temp.bits.b3;
  3116     0398  19F2               	btfsc	lcd_put_nibble@temp,3
  3117     0399  2B9B               	goto	u841
  3118     039A  2B9F               	goto	u840
  3119     039B                     u841:
  3120     039B  1283               	bcf	3,5	;RP0=0, select bank0
  3121     039C  1303               	bcf	3,6	;RP1=0, select bank0
  3122     039D  1788               	bsf	8,7	;volatile
  3123     039E  2BA2               	goto	u854
  3124     039F                     u840:
  3125     039F  1283               	bcf	3,5	;RP0=0, select bank0
  3126     03A0  1303               	bcf	3,6	;RP1=0, select bank0
  3127     03A1  1388               	bcf	8,7	;volatile
  3128     03A2                     u854:
  3129                           
  3130                           ;lcd.c: 122:  _delay((unsigned long)((20)*(20000000/4000000.0)));
  3131     03A2  3021               	movlw	33
  3132     03A3  00F0               	movwf	??_lcd_put_nibble
  3133     03A4                     u1527:
  3134     03A4  0BF0               	decfsz	??_lcd_put_nibble,f
  3135     03A5  2BA4               	goto	u1527
  3136     03A6                     l1444:
  3137                           
  3138                           ;lcd.c: 123:  RD2 = 1;
  3139     03A6  1283               	bcf	3,5	;RP0=0, select bank0
  3140     03A7  1303               	bcf	3,6	;RP1=0, select bank0
  3141     03A8  1508               	bsf	8,2	;volatile
  3142                           
  3143                           ;lcd.c: 124:  _delay((unsigned long)((20)*(20000000/4000000.0)));
  3144     03A9  3021               	movlw	33
  3145     03AA  00F0               	movwf	??_lcd_put_nibble
  3146     03AB                     u1537:
  3147     03AB  0BF0               	decfsz	??_lcd_put_nibble,f
  3148     03AC  2BAB               	goto	u1537
  3149     03AD                     l1446:
  3150                           
  3151                           ;lcd.c: 125:  RD2 = 0;
  3152     03AD  1283               	bcf	3,5	;RP0=0, select bank0
  3153     03AE  1303               	bcf	3,6	;RP1=0, select bank0
  3154     03AF  1108               	bcf	8,2	;volatile
  3155     03B0                     l151:
  3156     03B0  0008               	return
  3157     03B1                     __end_of_lcd_put_nibble:
  3158                           
  3159                           	psect	text15
  3160     02D4                     __ptext15:	
  3161 ;; *************** function _lcd_busy *****************
  3162 ;; Defined at:
  3163 ;;		line 19 in file "lcd.c"
  3164 ;; Parameters:    Size  Location     Type
  3165 ;;		None
  3166 ;; Auto vars:     Size  Location     Type
  3167 ;;  busy            1    1[COMMON] unsigned char 
  3168 ;; Return value:  Size  Location     Type
  3169 ;;                  1    wreg      unsigned char 
  3170 ;; Registers used:
  3171 ;;		wreg, status,2
  3172 ;; Tracked objects:
  3173 ;;		On entry : 0/0
  3174 ;;		On exit  : 0/0
  3175 ;;		Unchanged: 0/0
  3176 ;; Data sizes:     COMMON   BANK0   BANK1   BANK3   BANK2
  3177 ;;      Params:         0       0       0       0       0
  3178 ;;      Locals:         1       0       0       0       0
  3179 ;;      Temps:          1       0       0       0       0
  3180 ;;      Totals:         2       0       0       0       0
  3181 ;;Total ram usage:        2 bytes
  3182 ;; Hardware stack levels used: 1
  3183 ;; This function calls:
  3184 ;;		Nothing
  3185 ;; This function is called by:
  3186 ;;		_lcd_gotoxy
  3187 ;;		_lcd_putc
  3188 ;;		_lcd_init
  3189 ;; This function uses a non-reentrant model
  3190 ;;
  3191                           
  3192     02D4                     _lcd_busy:	
  3193                           ;psect for function _lcd_busy
  3194                           
  3195     02D4                     l1464:	
  3196                           ;incstack = 0
  3197                           ; Regs used in _lcd_busy: [wreg+status,2]
  3198                           
  3199                           
  3200                           ;lcd.c: 22: unsigned char busy;;lcd.c: 25:  TRISD4 = 1;
  3201     02D4  1683               	bsf	3,5	;RP0=1, select bank1
  3202     02D5  1303               	bcf	3,6	;RP1=0, select bank1
  3203     02D6  1608               	bsf	8,4	;volatile
  3204                           
  3205                           ;lcd.c: 26:  TRISD5 = 1;
  3206     02D7  1688               	bsf	8,5	;volatile
  3207                           
  3208                           ;lcd.c: 27:  TRISD6 = 1;
  3209     02D8  1708               	bsf	8,6	;volatile
  3210                           
  3211                           ;lcd.c: 28:  TRISD7 = 1;
  3212     02D9  1788               	bsf	8,7	;volatile
  3213                           
  3214                           ;lcd.c: 30:  RD1 = 1;
  3215     02DA  1283               	bcf	3,5	;RP0=0, select bank0
  3216     02DB  1303               	bcf	3,6	;RP1=0, select bank0
  3217     02DC  1488               	bsf	8,1	;volatile
  3218                           
  3219                           ;lcd.c: 31:  RD0 = 0;
  3220     02DD  1008               	bcf	8,0	;volatile
  3221     02DE                     l1466:
  3222                           
  3223                           ;lcd.c: 32:  _delay((unsigned long)((20)*(20000000/4000000.0)));
  3224     02DE  3021               	movlw	33
  3225     02DF  00F0               	movwf	??_lcd_busy
  3226     02E0                     u1547:
  3227     02E0  0BF0               	decfsz	??_lcd_busy,f
  3228     02E1  2AE0               	goto	u1547
  3229     02E2                     l1468:
  3230                           
  3231                           ;lcd.c: 33:  RD2 = 1;
  3232     02E2  1283               	bcf	3,5	;RP0=0, select bank0
  3233     02E3  1303               	bcf	3,6	;RP1=0, select bank0
  3234     02E4  1508               	bsf	8,2	;volatile
  3235                           
  3236                           ;lcd.c: 34:  _delay((unsigned long)((20)*(20000000/4000000.0)));
  3237     02E5  3021               	movlw	33
  3238     02E6  00F0               	movwf	??_lcd_busy
  3239     02E7                     u1557:
  3240     02E7  0BF0               	decfsz	??_lcd_busy,f
  3241     02E8  2AE7               	goto	u1557
  3242     02E9                     l1470:
  3243                           
  3244                           ;lcd.c: 36:  busy = RD7;
  3245     02E9  3000               	movlw	0
  3246     02EA  1283               	bcf	3,5	;RP0=0, select bank0
  3247     02EB  1303               	bcf	3,6	;RP1=0, select bank0
  3248     02EC  1B88               	btfsc	8,7	;volatile
  3249     02ED  3001               	movlw	1
  3250     02EE  00F1               	movwf	lcd_busy@busy
  3251     02EF                     l1472:
  3252                           
  3253                           ;lcd.c: 38:  RD2 = 0;
  3254     02EF  1108               	bcf	8,2	;volatile
  3255     02F0                     l1474:
  3256                           
  3257                           ;lcd.c: 39:  _delay((unsigned long)((20)*(20000000/4000000.0)));
  3258     02F0  3021               	movlw	33
  3259     02F1  00F0               	movwf	??_lcd_busy
  3260     02F2                     u1567:
  3261     02F2  0BF0               	decfsz	??_lcd_busy,f
  3262     02F3  2AF2               	goto	u1567
  3263     02F4                     l1476:
  3264                           
  3265                           ;lcd.c: 40:  RD2 = 1;
  3266     02F4  1283               	bcf	3,5	;RP0=0, select bank0
  3267     02F5  1303               	bcf	3,6	;RP1=0, select bank0
  3268     02F6  1508               	bsf	8,2	;volatile
  3269     02F7                     l1478:
  3270                           
  3271                           ;lcd.c: 41:  _delay((unsigned long)((20)*(20000000/4000000.0)));
  3272     02F7  3021               	movlw	33
  3273     02F8  00F0               	movwf	??_lcd_busy
  3274     02F9                     u1577:
  3275     02F9  0BF0               	decfsz	??_lcd_busy,f
  3276     02FA  2AF9               	goto	u1577
  3277     02FB                     l1480:
  3278                           
  3279                           ;lcd.c: 42:  RD2 = 0;
  3280     02FB  1283               	bcf	3,5	;RP0=0, select bank0
  3281     02FC  1303               	bcf	3,6	;RP1=0, select bank0
  3282     02FD  1108               	bcf	8,2	;volatile
  3283     02FE                     l1482:
  3284                           
  3285                           ;lcd.c: 44:  return busy;
  3286     02FE  0871               	movf	lcd_busy@busy,w
  3287     02FF                     l143:
  3288     02FF  0008               	return
  3289     0300                     __end_of_lcd_busy:
  3290                           
  3291                           	psect	text16
  3292     028C                     __ptext16:	
  3293 ;; *************** function _SP_VUA *****************
  3294 ;; Defined at:
  3295 ;;		line 120 in file "TEST_LCD_SERVO.c"
  3296 ;; Parameters:    Size  Location     Type
  3297 ;;		None
  3298 ;; Auto vars:     Size  Location     Type
  3299 ;;		None
  3300 ;; Return value:  Size  Location     Type
  3301 ;;                  1    wreg      void 
  3302 ;; Registers used:
  3303 ;;		wreg, status,2, status,0, btemp+1, pclath, cstack
  3304 ;; Tracked objects:
  3305 ;;		On entry : 0/0
  3306 ;;		On exit  : 0/0
  3307 ;;		Unchanged: 0/0
  3308 ;; Data sizes:     COMMON   BANK0   BANK1   BANK3   BANK2
  3309 ;;      Params:         0       0       0       0       0
  3310 ;;      Locals:         0       0       0       0       0
  3311 ;;      Temps:          0       0       0       0       0
  3312 ;;      Totals:         0       0       0       0       0
  3313 ;;Total ram usage:        0 bytes
  3314 ;; Hardware stack levels used: 1
  3315 ;; Hardware stack levels required when called: 1
  3316 ;; This function calls:
  3317 ;;		_delayTimer0
  3318 ;;		_servo_xoay_G3
  3319 ;;		_servo_xoay_P3
  3320 ;; This function is called by:
  3321 ;;		_main
  3322 ;; This function uses a non-reentrant model
  3323 ;;
  3324                           
  3325     028C                     _SP_VUA:	
  3326                           ;psect for function _SP_VUA
  3327                           
  3328     028C                     l1766:	
  3329                           ;incstack = 0
  3330                           ; Regs used in _SP_VUA: [wreg+status,2+status,0+btemp+1+pclath+cstack]
  3331                           
  3332                           
  3333                           ;TEST_LCD_SERVO.c: 122:     OPTION_REGbits.PS0 = 0;
  3334     028C  1283               	bcf	3,5	;RP0=0, select bank0
  3335     028D  1303               	bcf	3,6	;RP1=0, select bank0
  3336     028E  1D07               	btfss	7,2	;volatile
  3337     028F  2A91               	goto	u1351
  3338     0290  2A92               	goto	u1350
  3339     0291                     u1351:
  3340     0291  2AA7               	goto	l1774
  3341     0292                     u1350:
  3342     0292                     l1768:
  3343                           
  3344                           ;TEST_LCD_SERVO.c: 123: };TEST_LCD_SERVO.c: 125: void main(void)
  3345     0292  120A  118A  2174  120A  118A  	fcall	_servo_xoay_P3
  3346                           
  3347                           ;TEST_LCD_SERVO.c: 126: {
  3348     0297  120A  118A  21EB  120A  118A  	fcall	_delayTimer0
  3349     029C                     l1770:
  3350                           
  3351                           ;TEST_LCD_SERVO.c: 127:     PIC_Config();
  3352     029C  3001               	movlw	1
  3353     029D  00FF               	movwf	btemp+1
  3354     029E  087F               	movf	btemp+1,w
  3355     029F  1283               	bcf	3,5	;RP0=0, select bank0
  3356     02A0  1303               	bcf	3,6	;RP1=0, select bank0
  3357     02A1  07E6               	addwf	_sp_vua,f
  3358     02A2                     l1772:
  3359                           
  3360                           ;TEST_LCD_SERVO.c: 128:     lcd_init();
  3361     02A2  120A  118A  21D3  120A  118A  	fcall	_servo_xoay_G3
  3362     02A7                     l1774:
  3363                           
  3364                           ;TEST_LCD_SERVO.c: 130:     char buffer[16];
  3365     02A7  1283               	bcf	3,5	;RP0=0, select bank0
  3366     02A8  1303               	bcf	3,6	;RP1=0, select bank0
  3367     02A9  01E2               	clrf	_flag_vua
  3368     02AA  0AE2               	incf	_flag_vua,f
  3369     02AB                     l1776:
  3370                           
  3371                           ;TEST_LCD_SERVO.c: 131: 
  3372     02AB  01E1               	clrf	_flag_tong
  3373     02AC  0AE1               	incf	_flag_tong,f
  3374     02AD                     l97:
  3375     02AD  0008               	return
  3376     02AE                     __end_of_SP_VUA:
  3377                           
  3378                           	psect	text17
  3379     0174                     __ptext17:	
  3380 ;; *************** function _servo_xoay_P3 *****************
  3381 ;; Defined at:
  3382 ;;		line 81 in file "TEST_LCD_SERVO.c"
  3383 ;; Parameters:    Size  Location     Type
  3384 ;;		None
  3385 ;; Auto vars:     Size  Location     Type
  3386 ;;		None
  3387 ;; Return value:  Size  Location     Type
  3388 ;;                  1    wreg      void 
  3389 ;; Registers used:
  3390 ;;		wreg
  3391 ;; Tracked objects:
  3392 ;;		On entry : 0/0
  3393 ;;		On exit  : 0/0
  3394 ;;		Unchanged: 0/0
  3395 ;; Data sizes:     COMMON   BANK0   BANK1   BANK3   BANK2
  3396 ;;      Params:         0       0       0       0       0
  3397 ;;      Locals:         0       0       0       0       0
  3398 ;;      Temps:          2       0       0       0       0
  3399 ;;      Totals:         2       0       0       0       0
  3400 ;;Total ram usage:        2 bytes
  3401 ;; Hardware stack levels used: 1
  3402 ;; This function calls:
  3403 ;;		Nothing
  3404 ;; This function is called by:
  3405 ;;		_SP_VUA
  3406 ;; This function uses a non-reentrant model
  3407 ;;
  3408                           
  3409     0174                     _servo_xoay_P3:	
  3410                           ;psect for function _servo_xoay_P3
  3411                           
  3412     0174                     l1718:	
  3413                           ;incstack = 0
  3414                           ; Regs used in _servo_xoay_P3: [wreg]
  3415                           
  3416                           
  3417                           ;TEST_LCD_SERVO.c: 82:     flag_cao = 1;
  3418     0174  1283               	bcf	3,5	;RP0=0, select bank0
  3419     0175  1303               	bcf	3,6	;RP1=0, select bank0
  3420     0176  1686               	bsf	6,5	;volatile
  3421     0177                     l1720:
  3422                           
  3423                           ;TEST_LCD_SERVO.c: 83:     flag_tong =1;
  3424     0177  3007               	movlw	7
  3425     0178  00F1               	movwf	??_servo_xoay_P3+1
  3426     0179  307D               	movlw	125
  3427     017A  00F0               	movwf	??_servo_xoay_P3
  3428     017B                     u1587:
  3429     017B  0BF0               	decfsz	??_servo_xoay_P3,f
  3430     017C  297B               	goto	u1587
  3431     017D  0BF1               	decfsz	??_servo_xoay_P3+1,f
  3432     017E  297B               	goto	u1587
  3433     017F                     l1722:
  3434                           
  3435                           ;TEST_LCD_SERVO.c: 84: }
  3436     017F  1283               	bcf	3,5	;RP0=0, select bank0
  3437     0180  1303               	bcf	3,6	;RP1=0, select bank0
  3438     0181  1286               	bcf	6,5	;volatile
  3439                           
  3440                           ;TEST_LCD_SERVO.c: 85: void SP_THAP()
  3441     0182  307C               	movlw	124
  3442     0183  00F1               	movwf	??_servo_xoay_P3+1
  3443     0184  305F               	movlw	95
  3444     0185  00F0               	movwf	??_servo_xoay_P3
  3445     0186                     u1597:
  3446     0186  0BF0               	decfsz	??_servo_xoay_P3,f
  3447     0187  2986               	goto	u1597
  3448     0188  0BF1               	decfsz	??_servo_xoay_P3+1,f
  3449     0189  2986               	goto	u1597
  3450     018A                     l82:
  3451     018A  0008               	return
  3452     018B                     __end_of_servo_xoay_P3:
  3453                           
  3454                           	psect	text18
  3455     01D3                     __ptext18:	
  3456 ;; *************** function _servo_xoay_G3 *****************
  3457 ;; Defined at:
  3458 ;;		line 87 in file "TEST_LCD_SERVO.c"
  3459 ;; Parameters:    Size  Location     Type
  3460 ;;		None
  3461 ;; Auto vars:     Size  Location     Type
  3462 ;;		None
  3463 ;; Return value:  Size  Location     Type
  3464 ;;                  1    wreg      void 
  3465 ;; Registers used:
  3466 ;;		wreg
  3467 ;; Tracked objects:
  3468 ;;		On entry : 0/0
  3469 ;;		On exit  : 0/0
  3470 ;;		Unchanged: 0/0
  3471 ;; Data sizes:     COMMON   BANK0   BANK1   BANK3   BANK2
  3472 ;;      Params:         0       0       0       0       0
  3473 ;;      Locals:         0       0       0       0       0
  3474 ;;      Temps:          2       0       0       0       0
  3475 ;;      Totals:         2       0       0       0       0
  3476 ;;Total ram usage:        2 bytes
  3477 ;; Hardware stack levels used: 1
  3478 ;; This function calls:
  3479 ;;		Nothing
  3480 ;; This function is called by:
  3481 ;;		_SP_VUA
  3482 ;; This function uses a non-reentrant model
  3483 ;;
  3484                           
  3485     01D3                     _servo_xoay_G3:	
  3486                           ;psect for function _servo_xoay_G3
  3487                           
  3488     01D3                     l1724:	
  3489                           ;incstack = 0
  3490                           ; Regs used in _servo_xoay_G3: [wreg]
  3491                           
  3492                           
  3493                           ;TEST_LCD_SERVO.c: 88:             {
  3494     01D3  1283               	bcf	3,5	;RP0=0, select bank0
  3495     01D4  1303               	bcf	3,6	;RP1=0, select bank0
  3496     01D5  1686               	bsf	6,5	;volatile
  3497     01D6                     l1726:
  3498                           
  3499                           ;TEST_LCD_SERVO.c: 89: 
  3500     01D6  300C               	movlw	12
  3501     01D7  00F1               	movwf	??_servo_xoay_G3+1
  3502     01D8  30AF               	movlw	175
  3503     01D9  00F0               	movwf	??_servo_xoay_G3
  3504     01DA                     u1607:
  3505     01DA  0BF0               	decfsz	??_servo_xoay_G3,f
  3506     01DB  29DA               	goto	u1607
  3507     01DC  0BF1               	decfsz	??_servo_xoay_G3+1,f
  3508     01DD  29DA               	goto	u1607
  3509     01DE                     l1728:
  3510                           
  3511                           ;TEST_LCD_SERVO.c: 90:                 servo_xoay_P2();
  3512     01DE  1283               	bcf	3,5	;RP0=0, select bank0
  3513     01DF  1303               	bcf	3,6	;RP1=0, select bank0
  3514     01E0  1286               	bcf	6,5	;volatile
  3515                           
  3516                           ;TEST_LCD_SERVO.c: 91:                 delayTimer0();
  3517     01E1  3096               	movlw	150
  3518     01E2  00F1               	movwf	??_servo_xoay_G3+1
  3519     01E3  3058               	movlw	88
  3520     01E4  00F0               	movwf	??_servo_xoay_G3
  3521     01E5                     u1617:
  3522     01E5  0BF0               	decfsz	??_servo_xoay_G3,f
  3523     01E6  29E5               	goto	u1617
  3524     01E7  0BF1               	decfsz	??_servo_xoay_G3+1,f
  3525     01E8  29E5               	goto	u1617
  3526     01E9  0000               	nop
  3527     01EA                     l85:
  3528     01EA  0008               	return
  3529     01EB                     __end_of_servo_xoay_G3:
  3530                           
  3531                           	psect	text19
  3532     026A                     __ptext19:	
  3533 ;; *************** function _SP_THAP *****************
  3534 ;; Defined at:
  3535 ;;		line 107 in file "TEST_LCD_SERVO.c"
  3536 ;; Parameters:    Size  Location     Type
  3537 ;;		None
  3538 ;; Auto vars:     Size  Location     Type
  3539 ;;		None
  3540 ;; Return value:  Size  Location     Type
  3541 ;;                  1    wreg      void 
  3542 ;; Registers used:
  3543 ;;		wreg, status,2, status,0, btemp+1, pclath, cstack
  3544 ;; Tracked objects:
  3545 ;;		On entry : 0/0
  3546 ;;		On exit  : 0/0
  3547 ;;		Unchanged: 0/0
  3548 ;; Data sizes:     COMMON   BANK0   BANK1   BANK3   BANK2
  3549 ;;      Params:         0       0       0       0       0
  3550 ;;      Locals:         0       0       0       0       0
  3551 ;;      Temps:          0       0       0       0       0
  3552 ;;      Totals:         0       0       0       0       0
  3553 ;;Total ram usage:        0 bytes
  3554 ;; Hardware stack levels used: 1
  3555 ;; Hardware stack levels required when called: 1
  3556 ;; This function calls:
  3557 ;;		_delayTimer0
  3558 ;;		_servo_xoay_G2
  3559 ;;		_servo_xoay_P2
  3560 ;; This function is called by:
  3561 ;;		_main
  3562 ;; This function uses a non-reentrant model
  3563 ;;
  3564                           
  3565     026A                     _SP_THAP:	
  3566                           ;psect for function _SP_THAP
  3567                           
  3568     026A                     l1754:	
  3569                           ;incstack = 0
  3570                           ; Regs used in _SP_THAP: [wreg+status,2+status,0+btemp+1+pclath+cstack]
  3571                           
  3572                           
  3573                           ;TEST_LCD_SERVO.c: 109:     flag_tong =1;
  3574     026A  1283               	bcf	3,5	;RP0=0, select bank0
  3575     026B  1303               	bcf	3,6	;RP1=0, select bank0
  3576     026C  1C87               	btfss	7,1	;volatile
  3577     026D  2A6F               	goto	u1341
  3578     026E  2A70               	goto	u1340
  3579     026F                     u1341:
  3580     026F  2A85               	goto	l1762
  3581     0270                     u1340:
  3582     0270                     l1756:
  3583                           
  3584                           ;TEST_LCD_SERVO.c: 110: };TEST_LCD_SERVO.c: 112: {
  3585     0270  120A  118A  215D  120A  118A  	fcall	_servo_xoay_P2
  3586                           
  3587                           ;TEST_LCD_SERVO.c: 113:     ANSEL = ANSELH = 0;
  3588     0275  120A  118A  21EB  120A  118A  	fcall	_delayTimer0
  3589     027A                     l1758:
  3590                           
  3591                           ;TEST_LCD_SERVO.c: 114:     PORTC=0x00;
  3592     027A  3001               	movlw	1
  3593     027B  00FF               	movwf	btemp+1
  3594     027C  087F               	movf	btemp+1,w
  3595     027D  1283               	bcf	3,5	;RP0=0, select bank0
  3596     027E  1303               	bcf	3,6	;RP1=0, select bank0
  3597     027F  07E7               	addwf	_sp_thap,f
  3598     0280                     l1760:
  3599                           
  3600                           ;TEST_LCD_SERVO.c: 115:     TRISC=0x07;
  3601     0280  120A  118A  21BB  120A  118A  	fcall	_servo_xoay_G2
  3602     0285                     l1762:
  3603                           
  3604                           ;TEST_LCD_SERVO.c: 117:     TRISB=0x07;
  3605     0285  1283               	bcf	3,5	;RP0=0, select bank0
  3606     0286  1303               	bcf	3,6	;RP1=0, select bank0
  3607     0287  01E3               	clrf	_flag_thap
  3608     0288  0AE3               	incf	_flag_thap,f
  3609     0289                     l1764:
  3610                           
  3611                           ;TEST_LCD_SERVO.c: 118:     OPTION_REGbits.T0CS = 0;
  3612     0289  01E1               	clrf	_flag_tong
  3613     028A  0AE1               	incf	_flag_tong,f
  3614     028B                     l93:
  3615     028B  0008               	return
  3616     028C                     __end_of_SP_THAP:
  3617                           
  3618                           	psect	text20
  3619     015D                     __ptext20:	
  3620 ;; *************** function _servo_xoay_P2 *****************
  3621 ;; Defined at:
  3622 ;;		line 67 in file "TEST_LCD_SERVO.c"
  3623 ;; Parameters:    Size  Location     Type
  3624 ;;		None
  3625 ;; Auto vars:     Size  Location     Type
  3626 ;;		None
  3627 ;; Return value:  Size  Location     Type
  3628 ;;                  1    wreg      void 
  3629 ;; Registers used:
  3630 ;;		wreg
  3631 ;; Tracked objects:
  3632 ;;		On entry : 0/0
  3633 ;;		On exit  : 0/0
  3634 ;;		Unchanged: 0/0
  3635 ;; Data sizes:     COMMON   BANK0   BANK1   BANK3   BANK2
  3636 ;;      Params:         0       0       0       0       0
  3637 ;;      Locals:         0       0       0       0       0
  3638 ;;      Temps:          2       0       0       0       0
  3639 ;;      Totals:         2       0       0       0       0
  3640 ;;Total ram usage:        2 bytes
  3641 ;; Hardware stack levels used: 1
  3642 ;; This function calls:
  3643 ;;		Nothing
  3644 ;; This function is called by:
  3645 ;;		_SP_THAP
  3646 ;; This function uses a non-reentrant model
  3647 ;;
  3648                           
  3649     015D                     _servo_xoay_P2:	
  3650                           ;psect for function _servo_xoay_P2
  3651                           
  3652     015D                     l1706:	
  3653                           ;incstack = 0
  3654                           ; Regs used in _servo_xoay_P2: [wreg]
  3655                           
  3656                           
  3657                           ;TEST_LCD_SERVO.c: 68:     PORTBbits.RB5=0;
  3658     015D  1283               	bcf	3,5	;RP0=0, select bank0
  3659     015E  1303               	bcf	3,6	;RP1=0, select bank0
  3660     015F  1706               	bsf	6,6	;volatile
  3661     0160                     l1708:
  3662                           
  3663                           ;TEST_LCD_SERVO.c: 69:     _delay((unsigned long)((23000)*(20000000/4000000.0)));
  3664     0160  3007               	movlw	7
  3665     0161  00F1               	movwf	??_servo_xoay_P2+1
  3666     0162  307D               	movlw	125
  3667     0163  00F0               	movwf	??_servo_xoay_P2
  3668     0164                     u1627:
  3669     0164  0BF0               	decfsz	??_servo_xoay_P2,f
  3670     0165  2964               	goto	u1627
  3671     0166  0BF1               	decfsz	??_servo_xoay_P2+1,f
  3672     0167  2964               	goto	u1627
  3673     0168                     l1710:
  3674                           
  3675                           ;TEST_LCD_SERVO.c: 70: }
  3676     0168  1283               	bcf	3,5	;RP0=0, select bank0
  3677     0169  1303               	bcf	3,6	;RP1=0, select bank0
  3678     016A  1306               	bcf	6,6	;volatile
  3679                           
  3680                           ;TEST_LCD_SERVO.c: 71: 
  3681     016B  307C               	movlw	124
  3682     016C  00F1               	movwf	??_servo_xoay_P2+1
  3683     016D  305F               	movlw	95
  3684     016E  00F0               	movwf	??_servo_xoay_P2
  3685     016F                     u1637:
  3686     016F  0BF0               	decfsz	??_servo_xoay_P2,f
  3687     0170  296F               	goto	u1637
  3688     0171  0BF1               	decfsz	??_servo_xoay_P2+1,f
  3689     0172  296F               	goto	u1637
  3690     0173                     l76:
  3691     0173  0008               	return
  3692     0174                     __end_of_servo_xoay_P2:
  3693                           
  3694                           	psect	text21
  3695     01BB                     __ptext21:	
  3696 ;; *************** function _servo_xoay_G2 *****************
  3697 ;; Defined at:
  3698 ;;		line 73 in file "TEST_LCD_SERVO.c"
  3699 ;; Parameters:    Size  Location     Type
  3700 ;;		None
  3701 ;; Auto vars:     Size  Location     Type
  3702 ;;		None
  3703 ;; Return value:  Size  Location     Type
  3704 ;;                  1    wreg      void 
  3705 ;; Registers used:
  3706 ;;		wreg
  3707 ;; Tracked objects:
  3708 ;;		On entry : 0/0
  3709 ;;		On exit  : 0/0
  3710 ;;		Unchanged: 0/0
  3711 ;; Data sizes:     COMMON   BANK0   BANK1   BANK3   BANK2
  3712 ;;      Params:         0       0       0       0       0
  3713 ;;      Locals:         0       0       0       0       0
  3714 ;;      Temps:          2       0       0       0       0
  3715 ;;      Totals:         2       0       0       0       0
  3716 ;;Total ram usage:        2 bytes
  3717 ;; Hardware stack levels used: 1
  3718 ;; This function calls:
  3719 ;;		Nothing
  3720 ;; This function is called by:
  3721 ;;		_SP_THAP
  3722 ;; This function uses a non-reentrant model
  3723 ;;
  3724                           
  3725     01BB                     _servo_xoay_G2:	
  3726                           ;psect for function _servo_xoay_G2
  3727                           
  3728     01BB                     l1712:	
  3729                           ;incstack = 0
  3730                           ; Regs used in _servo_xoay_G2: [wreg]
  3731                           
  3732                           
  3733                           ;TEST_LCD_SERVO.c: 74:             if (RC0 == 1)
  3734     01BB  1283               	bcf	3,5	;RP0=0, select bank0
  3735     01BC  1303               	bcf	3,6	;RP1=0, select bank0
  3736     01BD  1706               	bsf	6,6	;volatile
  3737     01BE                     l1714:
  3738                           
  3739                           ;TEST_LCD_SERVO.c: 75:             {
  3740     01BE  300C               	movlw	12
  3741     01BF  00F1               	movwf	??_servo_xoay_G2+1
  3742     01C0  30AF               	movlw	175
  3743     01C1  00F0               	movwf	??_servo_xoay_G2
  3744     01C2                     u1647:
  3745     01C2  0BF0               	decfsz	??_servo_xoay_G2,f
  3746     01C3  29C2               	goto	u1647
  3747     01C4  0BF1               	decfsz	??_servo_xoay_G2+1,f
  3748     01C5  29C2               	goto	u1647
  3749     01C6                     l1716:
  3750                           
  3751                           ;TEST_LCD_SERVO.c: 76: 
  3752     01C6  1283               	bcf	3,5	;RP0=0, select bank0
  3753     01C7  1303               	bcf	3,6	;RP1=0, select bank0
  3754     01C8  1306               	bcf	6,6	;volatile
  3755                           
  3756                           ;TEST_LCD_SERVO.c: 77:                 servo_xoay_P();
  3757     01C9  3096               	movlw	150
  3758     01CA  00F1               	movwf	??_servo_xoay_G2+1
  3759     01CB  3058               	movlw	88
  3760     01CC  00F0               	movwf	??_servo_xoay_G2
  3761     01CD                     u1657:
  3762     01CD  0BF0               	decfsz	??_servo_xoay_G2,f
  3763     01CE  29CD               	goto	u1657
  3764     01CF  0BF1               	decfsz	??_servo_xoay_G2+1,f
  3765     01D0  29CD               	goto	u1657
  3766     01D1  0000               	nop
  3767     01D2                     l79:
  3768     01D2  0008               	return
  3769     01D3                     __end_of_servo_xoay_G2:
  3770                           
  3771                           	psect	text22
  3772     0248                     __ptext22:	
  3773 ;; *************** function _SP_CAO *****************
  3774 ;; Defined at:
  3775 ;;		line 94 in file "TEST_LCD_SERVO.c"
  3776 ;; Parameters:    Size  Location     Type
  3777 ;;		None
  3778 ;; Auto vars:     Size  Location     Type
  3779 ;;		None
  3780 ;; Return value:  Size  Location     Type
  3781 ;;                  1    wreg      void 
  3782 ;; Registers used:
  3783 ;;		wreg, status,2, status,0, btemp+1, pclath, cstack
  3784 ;; Tracked objects:
  3785 ;;		On entry : 0/0
  3786 ;;		On exit  : 0/0
  3787 ;;		Unchanged: 0/0
  3788 ;; Data sizes:     COMMON   BANK0   BANK1   BANK3   BANK2
  3789 ;;      Params:         0       0       0       0       0
  3790 ;;      Locals:         0       0       0       0       0
  3791 ;;      Temps:          0       0       0       0       0
  3792 ;;      Totals:         0       0       0       0       0
  3793 ;;Total ram usage:        0 bytes
  3794 ;; Hardware stack levels used: 1
  3795 ;; Hardware stack levels required when called: 1
  3796 ;; This function calls:
  3797 ;;		_delayTimer0
  3798 ;;		_servo_xoay_G
  3799 ;;		_servo_xoay_P
  3800 ;; This function is called by:
  3801 ;;		_main
  3802 ;; This function uses a non-reentrant model
  3803 ;;
  3804                           
  3805     0248                     _SP_CAO:	
  3806                           ;psect for function _SP_CAO
  3807                           
  3808     0248                     l1740:	
  3809                           ;incstack = 0
  3810                           ; Regs used in _SP_CAO: [wreg+status,2+status,0+btemp+1+pclath+cstack]
  3811                           
  3812                           
  3813                           ;TEST_LCD_SERVO.c: 96:     flag_tong =1;
  3814     0248  1283               	bcf	3,5	;RP0=0, select bank0
  3815     0249  1303               	bcf	3,6	;RP1=0, select bank0
  3816     024A  1C07               	btfss	7,0	;volatile
  3817     024B  2A4D               	goto	u1331
  3818     024C  2A4E               	goto	u1330
  3819     024D                     u1331:
  3820     024D  2A63               	goto	l1750
  3821     024E                     u1330:
  3822     024E                     l1742:
  3823                           
  3824                           ;TEST_LCD_SERVO.c: 97: };TEST_LCD_SERVO.c: 99: {
  3825     024E  120A  118A  2146  120A  118A  	fcall	_servo_xoay_P
  3826     0253                     l1744:
  3827                           
  3828                           ;TEST_LCD_SERVO.c: 100:             if (RC2 == 1)
  3829     0253  3001               	movlw	1
  3830     0254  00FF               	movwf	btemp+1
  3831     0255  087F               	movf	btemp+1,w
  3832     0256  1283               	bcf	3,5	;RP0=0, select bank0
  3833     0257  1303               	bcf	3,6	;RP1=0, select bank0
  3834     0258  07E8               	addwf	_sp_cao,f
  3835     0259                     l1746:
  3836                           
  3837                           ;TEST_LCD_SERVO.c: 101:             {
  3838     0259  120A  118A  21EB  120A  118A  	fcall	_delayTimer0
  3839     025E                     l1748:
  3840                           
  3841                           ;TEST_LCD_SERVO.c: 102: 
  3842     025E  120A  118A  21A3  120A  118A  	fcall	_servo_xoay_G
  3843     0263                     l1750:
  3844                           
  3845                           ;TEST_LCD_SERVO.c: 104:                 delayTimer0();
  3846     0263  1283               	bcf	3,5	;RP0=0, select bank0
  3847     0264  1303               	bcf	3,6	;RP1=0, select bank0
  3848     0265  01E4               	clrf	_flag_cao
  3849     0266  0AE4               	incf	_flag_cao,f
  3850     0267                     l1752:
  3851                           
  3852                           ;TEST_LCD_SERVO.c: 105:                 sp_vua++;
  3853     0267  01E1               	clrf	_flag_tong
  3854     0268  0AE1               	incf	_flag_tong,f
  3855     0269                     l89:
  3856     0269  0008               	return
  3857     026A                     __end_of_SP_CAO:
  3858                           
  3859                           	psect	text23
  3860     0146                     __ptext23:	
  3861 ;; *************** function _servo_xoay_P *****************
  3862 ;; Defined at:
  3863 ;;		line 53 in file "TEST_LCD_SERVO.c"
  3864 ;; Parameters:    Size  Location     Type
  3865 ;;		None
  3866 ;; Auto vars:     Size  Location     Type
  3867 ;;		None
  3868 ;; Return value:  Size  Location     Type
  3869 ;;                  1    wreg      void 
  3870 ;; Registers used:
  3871 ;;		wreg
  3872 ;; Tracked objects:
  3873 ;;		On entry : 0/0
  3874 ;;		On exit  : 0/0
  3875 ;;		Unchanged: 0/0
  3876 ;; Data sizes:     COMMON   BANK0   BANK1   BANK3   BANK2
  3877 ;;      Params:         0       0       0       0       0
  3878 ;;      Locals:         0       0       0       0       0
  3879 ;;      Temps:          2       0       0       0       0
  3880 ;;      Totals:         2       0       0       0       0
  3881 ;;Total ram usage:        2 bytes
  3882 ;; Hardware stack levels used: 1
  3883 ;; This function calls:
  3884 ;;		Nothing
  3885 ;; This function is called by:
  3886 ;;		_SP_CAO
  3887 ;; This function uses a non-reentrant model
  3888 ;;
  3889                           
  3890     0146                     _servo_xoay_P:	
  3891                           ;psect for function _servo_xoay_P
  3892                           
  3893     0146                     l1694:	
  3894                           ;incstack = 0
  3895                           ; Regs used in _servo_xoay_P: [wreg]
  3896                           
  3897                           
  3898                           ;TEST_LCD_SERVO.c: 54:     PORTBbits.RB6=0;
  3899     0146  1283               	bcf	3,5	;RP0=0, select bank0
  3900     0147  1303               	bcf	3,6	;RP1=0, select bank0
  3901     0148  1786               	bsf	6,7	;volatile
  3902     0149                     l1696:
  3903                           
  3904                           ;TEST_LCD_SERVO.c: 55:     _delay((unsigned long)((23000)*(20000000/4000000.0)));
  3905     0149  3007               	movlw	7
  3906     014A  00F1               	movwf	??_servo_xoay_P+1
  3907     014B  307D               	movlw	125
  3908     014C  00F0               	movwf	??_servo_xoay_P
  3909     014D                     u1667:
  3910     014D  0BF0               	decfsz	??_servo_xoay_P,f
  3911     014E  294D               	goto	u1667
  3912     014F  0BF1               	decfsz	??_servo_xoay_P+1,f
  3913     0150  294D               	goto	u1667
  3914     0151                     l1698:
  3915                           
  3916                           ;TEST_LCD_SERVO.c: 56: }
  3917     0151  1283               	bcf	3,5	;RP0=0, select bank0
  3918     0152  1303               	bcf	3,6	;RP1=0, select bank0
  3919     0153  1386               	bcf	6,7	;volatile
  3920                           
  3921                           ;TEST_LCD_SERVO.c: 57: 
  3922     0154  307C               	movlw	124
  3923     0155  00F1               	movwf	??_servo_xoay_P+1
  3924     0156  305F               	movlw	95
  3925     0157  00F0               	movwf	??_servo_xoay_P
  3926     0158                     u1677:
  3927     0158  0BF0               	decfsz	??_servo_xoay_P,f
  3928     0159  2958               	goto	u1677
  3929     015A  0BF1               	decfsz	??_servo_xoay_P+1,f
  3930     015B  2958               	goto	u1677
  3931     015C                     l70:
  3932     015C  0008               	return
  3933     015D                     __end_of_servo_xoay_P:
  3934                           
  3935                           	psect	text24
  3936     01A3                     __ptext24:	
  3937 ;; *************** function _servo_xoay_G *****************
  3938 ;; Defined at:
  3939 ;;		line 59 in file "TEST_LCD_SERVO.c"
  3940 ;; Parameters:    Size  Location     Type
  3941 ;;		None
  3942 ;; Auto vars:     Size  Location     Type
  3943 ;;		None
  3944 ;; Return value:  Size  Location     Type
  3945 ;;                  1    wreg      void 
  3946 ;; Registers used:
  3947 ;;		wreg
  3948 ;; Tracked objects:
  3949 ;;		On entry : 0/0
  3950 ;;		On exit  : 0/0
  3951 ;;		Unchanged: 0/0
  3952 ;; Data sizes:     COMMON   BANK0   BANK1   BANK3   BANK2
  3953 ;;      Params:         0       0       0       0       0
  3954 ;;      Locals:         0       0       0       0       0
  3955 ;;      Temps:          2       0       0       0       0
  3956 ;;      Totals:         2       0       0       0       0
  3957 ;;Total ram usage:        2 bytes
  3958 ;; Hardware stack levels used: 1
  3959 ;; This function calls:
  3960 ;;		Nothing
  3961 ;; This function is called by:
  3962 ;;		_SP_CAO
  3963 ;; This function uses a non-reentrant model
  3964 ;;
  3965                           
  3966     01A3                     _servo_xoay_G:	
  3967                           ;psect for function _servo_xoay_G
  3968                           
  3969     01A3                     l1700:	
  3970                           ;incstack = 0
  3971                           ; Regs used in _servo_xoay_G: [wreg]
  3972                           
  3973                           
  3974                           ;TEST_LCD_SERVO.c: 60:     PORTBbits.RB5=1;
  3975     01A3  1283               	bcf	3,5	;RP0=0, select bank0
  3976     01A4  1303               	bcf	3,6	;RP1=0, select bank0
  3977     01A5  1786               	bsf	6,7	;volatile
  3978     01A6                     l1702:
  3979                           
  3980                           ;TEST_LCD_SERVO.c: 61:     _delay((unsigned long)((1000)*(20000000/4000000.0)));
  3981     01A6  300C               	movlw	12
  3982     01A7  00F1               	movwf	??_servo_xoay_G+1
  3983     01A8  30AF               	movlw	175
  3984     01A9  00F0               	movwf	??_servo_xoay_G
  3985     01AA                     u1687:
  3986     01AA  0BF0               	decfsz	??_servo_xoay_G,f
  3987     01AB  29AA               	goto	u1687
  3988     01AC  0BF1               	decfsz	??_servo_xoay_G+1,f
  3989     01AD  29AA               	goto	u1687
  3990     01AE                     l1704:
  3991                           
  3992                           ;TEST_LCD_SERVO.c: 62:     PORTBbits.RB5=0;
  3993     01AE  1283               	bcf	3,5	;RP0=0, select bank0
  3994     01AF  1303               	bcf	3,6	;RP1=0, select bank0
  3995     01B0  1386               	bcf	6,7	;volatile
  3996                           
  3997                           ;TEST_LCD_SERVO.c: 63:     _delay((unsigned long)((19000)*(20000000/4000000.0)));
  3998     01B1  3096               	movlw	150
  3999     01B2  00F1               	movwf	??_servo_xoay_G+1
  4000     01B3  3058               	movlw	88
  4001     01B4  00F0               	movwf	??_servo_xoay_G
  4002     01B5                     u1697:
  4003     01B5  0BF0               	decfsz	??_servo_xoay_G,f
  4004     01B6  29B5               	goto	u1697
  4005     01B7  0BF1               	decfsz	??_servo_xoay_G+1,f
  4006     01B8  29B5               	goto	u1697
  4007     01B9  0000               	nop
  4008     01BA                     l73:
  4009     01BA  0008               	return
  4010     01BB                     __end_of_servo_xoay_G:
  4011                           
  4012                           	psect	text25
  4013     01EB                     __ptext25:	
  4014 ;; *************** function _delayTimer0 *****************
  4015 ;; Defined at:
  4016 ;;		line 40 in file "TEST_LCD_SERVO.c"
  4017 ;; Parameters:    Size  Location     Type
  4018 ;;		None
  4019 ;; Auto vars:     Size  Location     Type
  4020 ;;  t               2    0[COMMON] int 
  4021 ;; Return value:  Size  Location     Type
  4022 ;;                  1    wreg      void 
  4023 ;; Registers used:
  4024 ;;		wreg, status,2, status,0
  4025 ;; Tracked objects:
  4026 ;;		On entry : 0/0
  4027 ;;		On exit  : 0/0
  4028 ;;		Unchanged: 0/0
  4029 ;; Data sizes:     COMMON   BANK0   BANK1   BANK3   BANK2
  4030 ;;      Params:         0       0       0       0       0
  4031 ;;      Locals:         2       0       0       0       0
  4032 ;;      Temps:          0       0       0       0       0
  4033 ;;      Totals:         2       0       0       0       0
  4034 ;;Total ram usage:        2 bytes
  4035 ;; Hardware stack levels used: 1
  4036 ;; This function calls:
  4037 ;;		Nothing
  4038 ;; This function is called by:
  4039 ;;		_SP_CAO
  4040 ;;		_SP_THAP
  4041 ;;		_SP_VUA
  4042 ;; This function uses a non-reentrant model
  4043 ;;
  4044                           
  4045     01EB                     _delayTimer0:	
  4046                           ;psect for function _delayTimer0
  4047                           
  4048     01EB                     l1686:	
  4049                           ;incstack = 0
  4050                           ; Regs used in _delayTimer0: [wreg+status,2+status,0]
  4051                           
  4052                           
  4053                           ;TEST_LCD_SERVO.c: 43: 
  4054     01EB  30F4               	movlw	244
  4055     01EC  00F0               	movwf	delayTimer0@t
  4056     01ED  3001               	movlw	1
  4057     01EE  00F1               	movwf	delayTimer0@t+1
  4058                           
  4059                           ;TEST_LCD_SERVO.c: 44: 
  4060     01EF  29F9               	goto	l1692
  4061     01F0                     l1688:
  4062                           
  4063                           ;TEST_LCD_SERVO.c: 45: void servo_xoay_P2(void){;TEST_LCD_SERVO.c: 46:     PORTBbits.RB6
      +                          =1;
  4064     01F0  3064               	movlw	100
  4065     01F1  1283               	bcf	3,5	;RP0=0, select bank0
  4066     01F2  1303               	bcf	3,6	;RP1=0, select bank0
  4067     01F3  0081               	movwf	1	;volatile
  4068     01F4                     l1690:
  4069                           
  4070                           ;TEST_LCD_SERVO.c: 47:     _delay((unsigned long)((1000)*(20000000/4000000.0)));
  4071     01F4  110B               	bcf	11,2	;volatile
  4072     01F5                     l63:	
  4073                           ;TEST_LCD_SERVO.c: 48:     PORTBbits.RB6=0;
  4074                           
  4075     01F5  1D0B               	btfss	11,2	;volatile
  4076     01F6  29F8               	goto	u1301
  4077     01F7  29F9               	goto	u1300
  4078     01F8                     u1301:
  4079     01F8  29F5               	goto	l63
  4080     01F9                     u1300:
  4081     01F9                     l1692:
  4082                           
  4083                           ;TEST_LCD_SERVO.c: 44: 
  4084     01F9  30FF               	movlw	255
  4085     01FA  07F0               	addwf	delayTimer0@t,f
  4086     01FB  1803               	skipnc
  4087     01FC  0AF1               	incf	delayTimer0@t+1,f
  4088     01FD  30FF               	movlw	255
  4089     01FE  07F1               	addwf	delayTimer0@t+1,f
  4090     01FF  0A70               	incf	delayTimer0@t,w
  4091     0200  1D03               	skipz
  4092     0201  2A06               	goto	u1311
  4093     0202  0A71               	incf	delayTimer0@t+1,w
  4094     0203  1D03               	btfss	3,2
  4095     0204  2A06               	goto	u1311
  4096     0205  2A07               	goto	u1310
  4097     0206                     u1311:
  4098     0206  29F0               	goto	l1688
  4099     0207                     u1310:
  4100     0207                     l67:
  4101     0207  0008               	return
  4102     0208                     __end_of_delayTimer0:
  4103                           
  4104                           	psect	text26
  4105     018B                     __ptext26:	
  4106 ;; *************** function _PIC_Config *****************
  4107 ;; Defined at:
  4108 ;;		line 133 in file "TEST_LCD_SERVO.c"
  4109 ;; Parameters:    Size  Location     Type
  4110 ;;		None
  4111 ;; Auto vars:     Size  Location     Type
  4112 ;;		None
  4113 ;; Return value:  Size  Location     Type
  4114 ;;                  1    wreg      void 
  4115 ;; Registers used:
  4116 ;;		wreg, status,2
  4117 ;; Tracked objects:
  4118 ;;		On entry : 0/0
  4119 ;;		On exit  : 0/0
  4120 ;;		Unchanged: 0/0
  4121 ;; Data sizes:     COMMON   BANK0   BANK1   BANK3   BANK2
  4122 ;;      Params:         0       0       0       0       0
  4123 ;;      Locals:         0       0       0       0       0
  4124 ;;      Temps:          0       0       0       0       0
  4125 ;;      Totals:         0       0       0       0       0
  4126 ;;Total ram usage:        0 bytes
  4127 ;; Hardware stack levels used: 1
  4128 ;; This function calls:
  4129 ;;		Nothing
  4130 ;; This function is called by:
  4131 ;;		_main
  4132 ;; This function uses a non-reentrant model
  4133 ;;
  4134                           
  4135     018B                     _PIC_Config:	
  4136                           ;psect for function _PIC_Config
  4137                           
  4138     018B                     l1778:	
  4139                           ;incstack = 0
  4140                           ; Regs used in _PIC_Config: [wreg+status,2]
  4141                           
  4142                           
  4143                           ;TEST_LCD_SERVO.c: 135:     for (int i = 0; i < 8; i++)
  4144     018B  1683               	bsf	3,5	;RP0=1, select bank3
  4145     018C  1703               	bsf	3,6	;RP1=1, select bank3
  4146     018D  0189               	clrf	9	;volatile
  4147     018E  0188               	clrf	8	;volatile
  4148                           
  4149                           ;TEST_LCD_SERVO.c: 136:     {
  4150     018F  1283               	bcf	3,5	;RP0=0, select bank0
  4151     0190  1303               	bcf	3,6	;RP1=0, select bank0
  4152     0191  0187               	clrf	7	;volatile
  4153     0192                     l1780:
  4154                           
  4155                           ;TEST_LCD_SERVO.c: 137: 
  4156     0192  3007               	movlw	7
  4157     0193  1683               	bsf	3,5	;RP0=1, select bank1
  4158     0194  1303               	bcf	3,6	;RP1=0, select bank1
  4159     0195  0087               	movwf	7	;volatile
  4160     0196                     l1782:
  4161                           
  4162                           ;TEST_LCD_SERVO.c: 138: 
  4163     0196  1283               	bcf	3,5	;RP0=0, select bank0
  4164     0197  1303               	bcf	3,6	;RP1=0, select bank0
  4165     0198  0186               	clrf	6	;volatile
  4166                           
  4167                           ;TEST_LCD_SERVO.c: 139: 
  4168     0199  3007               	movlw	7
  4169     019A  1683               	bsf	3,5	;RP0=1, select bank1
  4170     019B  1303               	bcf	3,6	;RP1=0, select bank1
  4171     019C  0086               	movwf	6	;volatile
  4172     019D                     l1784:
  4173                           
  4174                           ;TEST_LCD_SERVO.c: 140: 
  4175     019D  1281               	bcf	1,5	;volatile
  4176     019E                     l1786:
  4177                           
  4178                           ;TEST_LCD_SERVO.c: 141:         lcd_put_byte(1, trai_tim[i]);
  4179     019E  1181               	bcf	1,3	;volatile
  4180     019F                     l1788:
  4181                           
  4182                           ;TEST_LCD_SERVO.c: 142:     }
  4183     019F  1501               	bsf	1,2	;volatile
  4184     01A0                     l1790:
  4185                           
  4186                           ;TEST_LCD_SERVO.c: 143:     while(1)
  4187     01A0  1081               	bcf	1,1	;volatile
  4188     01A1                     l1792:
  4189                           
  4190                           ;TEST_LCD_SERVO.c: 144:     {
  4191     01A1  1001               	bcf	1,0	;volatile
  4192     01A2                     l100:
  4193     01A2  0008               	return
  4194     01A3                     __end_of_PIC_Config:
  4195     007E                     btemp	set	126	;btemp
  4196     007E                     wtemp0	set	126
  4197                           
  4198                           	psect	config
  4199                           
  4200                           ;Config register CONFIG1 @ 0x2007
  4201                           ;	Oscillator Selection bits
  4202                           ;	FOSC = HS, HS oscillator: High-speed crystal/resonator on RA6/OSC2/CLKOUT and RA7/OSC1
      +                          /CLKIN
  4203                           ;	Watchdog Timer Enable bit
  4204                           ;	WDTE = OFF, WDT disabled and can be enabled by SWDTEN bit of the WDTCON register
  4205                           ;	Power-up Timer Enable bit
  4206                           ;	PWRTE = OFF, PWRT disabled
  4207                           ;	RE3/MCLR pin function select bit
  4208                           ;	MCLRE = ON, RE3/MCLR pin function is MCLR
  4209                           ;	Code Protection bit
  4210                           ;	CP = OFF, Program memory code protection is disabled
  4211                           ;	Data Code Protection bit
  4212                           ;	CPD = OFF, Data memory code protection is disabled
  4213                           ;	Brown Out Reset Selection bits
  4214                           ;	BOREN = OFF, BOR disabled
  4215                           ;	Internal External Switchover bit
  4216                           ;	IESO = OFF, Internal/External Switchover mode is disabled
  4217                           ;	Fail-Safe Clock Monitor Enabled bit
  4218                           ;	FCMEN = OFF, Fail-Safe Clock Monitor is disabled
  4219                           ;	Low Voltage Programming Enable bit
  4220                           ;	LVP = OFF, RB3 pin has digital I/O, HV on MCLR must be used for programming
  4221                           ;	In-Circuit Debugger Mode bit
  4222                           ;	DEBUG = 0x1, unprogrammed default
  4223     2007                     	org	8199
  4224     2007  20F2               	dw	8434
  4225                           
  4226                           ;Config register CONFIG2 @ 0x2008
  4227                           ;	Brown-out Reset Selection bit
  4228                           ;	BOR4V = BOR40V, Brown-out Reset set to 4.0V
  4229                           ;	Flash Program Memory Self Write Enable bits
  4230                           ;	WRT = OFF, Write protection off
  4231     2008                     	org	8200
  4232     2008  3FFF               	dw	16383

Data Sizes:
    Strings     50
    Constant    8
    Data        0
    BSS         45
    Persistent  0
    Stack       0

Auto Spaces:
    Space          Size  Autos    Used
    COMMON           14     14      14
    BANK0            80     60      73
    BANK1            80      0      32
    BANK3            96      0       0
    BANK2            96      0       0

Pointer List with Targets:

    f$.$buffer	PTR unsigned char  size(1) Largest target is 0

    f$.$source	PTR const unsigned char  size(1) Largest target is 0

    fputc@fp	PTR struct _IO_FILE size(1) Largest target is 11
		 -> sprintf@f(BANK0[11]), 

    fputc@fp$.$buffer	PTR unsigned char  size(1) Largest target is 0

    fputc@fp$.$source	PTR const unsigned char  size(1) Largest target is 0

    lcd_puts@s	PTR const unsigned char  size(2) Largest target is 21
		 -> main@buffer(BANK0[16]), STR_1(CODE[21]), STR_2(CODE[4]), STR_3(CODE[7]), 
		 -> STR_4(CODE[5]), 

    S742$buffer	PTR unsigned char  size(1) Largest target is 0

    S742$source	PTR const unsigned char  size(1) Largest target is 0

    sprintf@ap	PTR void [1] size(1) Largest target is 2
		 -> ?_sprintf(BANK0[2]), 

    sprintf@fmt	PTR const unsigned char  size(1) Largest target is 17
		 -> STR_5(CODE[3]), STR_6(CODE[3]), STR_7(CODE[3]), STR_8(CODE[17]), 

    sprintf@s	PTR unsigned char  size(1) Largest target is 16
		 -> main@buffer(BANK0[16]), 

    vfpfcnvrt@ap	PTR PTR void  size(1) Largest target is 1
		 -> sprintf@ap(BANK0[1]), 

    vfpfcnvrt@cp	PTR unsigned char  size(1) Largest target is 17
		 -> STR_5(CODE[3]), STR_6(CODE[3]), STR_7(CODE[3]), STR_8(CODE[17]), 

    vfpfcnvrt@fmt	PTR PTR unsigned char  size(1) Largest target is 1
		 -> vfprintf@cfmt(BANK0[1]), 

    vfpfcnvrt@fp	PTR struct _IO_FILE size(1) Largest target is 11
		 -> sprintf@f(BANK0[11]), 

    vfprintf@ap	PTR PTR void  size(1) Largest target is 1
		 -> sprintf@ap(BANK0[1]), 

    vfprintf@cfmt	PTR unsigned char  size(1) Largest target is 17
		 -> STR_5(CODE[3]), STR_6(CODE[3]), STR_7(CODE[3]), STR_8(CODE[17]), 

    vfprintf@fmt	PTR const unsigned char  size(1) Largest target is 17
		 -> STR_5(CODE[3]), STR_6(CODE[3]), STR_7(CODE[3]), STR_8(CODE[17]), 

    vfprintf@fp	PTR struct _IO_FILE size(1) Largest target is 11
		 -> sprintf@f(BANK0[11]), 


Critical Paths under _main in COMMON

    _main->_lcd_puts
    _main->_sprintf
    _fputc->_putch
    _putch->_lcd_putc
    _abs->___awmod
    _lcd_puts->_lcd_putc
    _lcd_putc->_lcd_gotoxy
    _lcd_gotoxy->_lcd_put_byte
    _lcd_init->_lcd_put_byte
    _lcd_put_byte->_lcd_put_nibble
    _SP_VUA->_delayTimer0
    _SP_VUA->_servo_xoay_G3
    _SP_VUA->_servo_xoay_P3
    _SP_THAP->_delayTimer0
    _SP_THAP->_servo_xoay_G2
    _SP_THAP->_servo_xoay_P2
    _SP_CAO->_delayTimer0
    _SP_CAO->_servo_xoay_G
    _SP_CAO->_servo_xoay_P

Critical Paths under _main in BANK0

    _main->_sprintf
    _sprintf->_vfprintf
    _vfprintf->_vfpfcnvrt
    _vfpfcnvrt->_fputc

Critical Paths under _main in BANK1

    None.

Critical Paths under _main in BANK3

    None.

Critical Paths under _main in BANK2

    None.

Call Graph Tables:

 ---------------------------------------------------------------------------------
 (Depth) Function   	        Calls       Base Space   Used Autos Params    Refs
 ---------------------------------------------------------------------------------
 (0) _main                                                20    20      0   18859
                                             40 BANK0     20    20      0
                         _PIC_Config
                             _SP_CAO
                            _SP_THAP
                             _SP_VUA
                         _lcd_gotoxy
                           _lcd_init
                       _lcd_put_byte
                           _lcd_putc
                           _lcd_puts
                            _sprintf
 ---------------------------------------------------------------------------------
 (1) _sprintf                                             19    16      3    6813
                                             13 COMMON     1     1      0
                                             24 BANK0     16    13      3
                           _vfprintf
 ---------------------------------------------------------------------------------
 (2) _vfprintf                                             4     2      2    6178
                                             20 BANK0      4     2      2
                          _vfpfcnvrt
 ---------------------------------------------------------------------------------
 (3) _vfpfcnvrt                                           12    10      2    5871
                                              8 BANK0     12    10      2
                            ___awdiv
                            ___awmod
                                _abs
                              _fputc
 ---------------------------------------------------------------------------------
 (4) _fputc                                                8     5      3    4110
                                              0 BANK0      8     5      3
                              _putch
 ---------------------------------------------------------------------------------
 (5) _putch                                                1     1      0    3328
                                             12 COMMON     1     1      0
                           _lcd_putc
 ---------------------------------------------------------------------------------
 (4) _abs                                                  4     2      2     142
                                              6 COMMON     4     2      2
                            ___awmod (ARG)
 ---------------------------------------------------------------------------------
 (4) ___awmod                                              6     2      4     448
                                              0 COMMON     6     2      4
 ---------------------------------------------------------------------------------
 (4) ___awdiv                                              8     4      4     452
                                              0 COMMON     8     4      4
 ---------------------------------------------------------------------------------
 (1) _lcd_puts                                             2     0      2    3959
                                             12 COMMON     2     0      2
                           _lcd_putc
 ---------------------------------------------------------------------------------
 (6) _lcd_putc                                             3     3      0    3306
                                              9 COMMON     3     3      0
                           _lcd_busy
                         _lcd_gotoxy
                       _lcd_put_byte
 ---------------------------------------------------------------------------------
 (7) _lcd_gotoxy                                           3     2      1    2150
                                              6 COMMON     3     2      1
                           _lcd_busy
                       _lcd_put_byte
 ---------------------------------------------------------------------------------
 (1) _lcd_init                                             3     3      0    1223
                                              6 COMMON     2     2      0
                           _lcd_busy
                       _lcd_put_byte
                     _lcd_put_nibble
 ---------------------------------------------------------------------------------
 (7) _lcd_put_byte                                         3     2      1    1089
                                              3 COMMON     3     2      1
                     _lcd_put_nibble
 ---------------------------------------------------------------------------------
 (8) _lcd_put_nibble                                       3     3      0     111
                                              0 COMMON     3     3      0
 ---------------------------------------------------------------------------------
 (8) _lcd_busy                                             2     2      0      23
                                              0 COMMON     2     2      0
 ---------------------------------------------------------------------------------
 (1) _SP_VUA                                               0     0      0      23
                        _delayTimer0
                      _servo_xoay_G3
                      _servo_xoay_P3
 ---------------------------------------------------------------------------------
 (2) _servo_xoay_P3                                        2     2      0       0
                                              0 COMMON     2     2      0
 ---------------------------------------------------------------------------------
 (2) _servo_xoay_G3                                        2     2      0       0
                                              0 COMMON     2     2      0
 ---------------------------------------------------------------------------------
 (1) _SP_THAP                                              0     0      0      23
                        _delayTimer0
                      _servo_xoay_G2
                      _servo_xoay_P2
 ---------------------------------------------------------------------------------
 (2) _servo_xoay_P2                                        2     2      0       0
                                              0 COMMON     2     2      0
 ---------------------------------------------------------------------------------
 (2) _servo_xoay_G2                                        2     2      0       0
                                              0 COMMON     2     2      0
 ---------------------------------------------------------------------------------
 (1) _SP_CAO                                               0     0      0      23
                        _delayTimer0
                       _servo_xoay_G
                       _servo_xoay_P
 ---------------------------------------------------------------------------------
 (2) _servo_xoay_P                                         2     2      0       0
                                              0 COMMON     2     2      0
 ---------------------------------------------------------------------------------
 (2) _servo_xoay_G                                         2     2      0       0
                                              0 COMMON     2     2      0
 ---------------------------------------------------------------------------------
 (2) _delayTimer0                                          2     2      0      23
                                              0 COMMON     2     2      0
 ---------------------------------------------------------------------------------
 (1) _PIC_Config                                           0     0      0       0
 ---------------------------------------------------------------------------------
 Estimated maximum stack depth 8
 ---------------------------------------------------------------------------------

 Call Graph Graphs:

 _main (ROOT)
   _PIC_Config
   _SP_CAO
     _delayTimer0
     _servo_xoay_G
     _servo_xoay_P
   _SP_THAP
     _delayTimer0
     _servo_xoay_G2
     _servo_xoay_P2
   _SP_VUA
     _delayTimer0
     _servo_xoay_G3
     _servo_xoay_P3
   _lcd_gotoxy
     _lcd_busy
     _lcd_put_byte
       _lcd_put_nibble
   _lcd_init
     _lcd_busy
     _lcd_put_byte
     _lcd_put_nibble
   _lcd_put_byte
   _lcd_putc
     _lcd_busy
     _lcd_gotoxy
     _lcd_put_byte
   _lcd_puts
     _lcd_putc
   _sprintf
     _vfprintf
       _vfpfcnvrt
         ___awdiv
         ___awmod
         _abs
           ___awmod (ARG)
         _fputc
           _putch
             _lcd_putc

 Address spaces:
Name               Size   Autos  Total    Cost      Usage
BITCOMMON            E      0       0       0        0.0%
EEDATA             100      0       0       0        0.0%
NULL                 0      0       0       0        0.0%
CODE                 0      0       0       0        0.0%
COMMON               E      E       E       1      100.0%
BITSFR0              0      0       0       1        0.0%
SFR0                 0      0       0       1        0.0%
BITSFR1              0      0       0       2        0.0%
SFR1                 0      0       0       2        0.0%
STACK                0      0       0       2        0.0%
ABS                  0      0      77       3        0.0%
BITBANK0            50      0       0       4        0.0%
BITSFR3              0      0       0       4        0.0%
SFR3                 0      0       0       4        0.0%
BANK0               50     3C      49       5       91.2%
BITSFR2              0      0       0       5        0.0%
SFR2                 0      0       0       5        0.0%
BITBANK1            50      0       0       6        0.0%
BANK1               50      0      20       7       40.0%
BITBANK3            60      0       0       8        0.0%
BANK3               60      0       0       9        0.0%
BITBANK2            60      0       0      10        0.0%
BANK2               60      0       0      11        0.0%
DATA                 0      0      77      12        0.0%


Microchip Technology PIC Macro Assembler V2.45 build 20230818022343 
Symbol Table                                                                                   Fri Aug 02 15:57:15 2024

                      pc 0002                       l70 015C                       l63 01F5  
                     l73 01BA                       l82 018A                       l67 0207  
                     l76 0173                       l93 028B                       l85 01EA  
                     l79 01D2                       l89 0269                       l97 02AD  
 __end_of_lcd_put_nibble 03B1             ___awdiv@sign 0075                       fsr 0004  
          ?_lcd_put_byte 0073                      l100 01A2                      l211 05BF  
                    l143 02FF                      l151 03B0                      l154 0310  
                    l162 035E                      l156 0336                      l238 012C  
                    l169 0370                      l193 02D3                      l187 0408  
                    l490 0461                      l477 0522                      l831 0247  
                    l825 06AC                      l850 04BB                      l838 0145  
                    l787 0226                      _RC0 0038                      _RC1 0039  
                    _RC2 003A                      _RD0 0040                      _RD1 0041  
                    _RD2 0042                      _RD4 0044                      _RD5 0045  
                    _RD6 0046                      _RD7 0047                      u800 038B  
                    u801 0387                      u820 0395                      u900 0350  
                    u821 0391                      u901 034F                      u814 038E  
                    u910 035A                      u911 0359                      u840 039F  
                    u920 0370                      u841 039B                      u921 036F  
                    u834 0398                      u930 03C5                      u931 03C4  
                    u780 0381                      u860 030C                      u940 03E1  
                    u781 037D                      u861 030B                      u941 03E0  
                    u854 03A2                      u950 03F4                      u951 03F3  
                    u880 033D                      u960 04C1                      u881 033C  
                    u961 04C0                      u794 0384                      u890 0346  
                    u970 04CC                      u875 0324                      u891 0345  
                    u971 04CB                      u980 04DD                      u981 04DC  
                    u995 04E1                      _abs 0135                      fsr0 0004  
                    indf 0000             ___awmod@sign 0075                     ?_abs 0076  
                   l1500 035A                     l1502 035E                     l1510 03BB  
                   l1440 038E                     l1432 0372                     l1504 0366  
                   l1520 03EA                     l1512 03C6                     l1600 0446  
                   l1442 0398                     l1434 0378                     l1450 0307  
                   l1514 03CF                     l1522 03F5                     l1506 03B2  
                   l1530 04BC                     l1602 044D                     l1700 01A3  
                   l1444 03A6                     l1436 037A                     l1460 0321  
                   l1452 030C                     l1516 03D7                     l1508 03B3  
                   l1540 04CC                     l1532 04BD                     l1604 0453  
                   l1620 0484                     l1612 0462                     l1702 01A6  
                   l1710 0168                     l1470 02E9                     l1446 03AD  
                   l1438 0384                     l1462 032F                     l1454 0313  
                   l1518 03E2                     l1550 04E0                     l1542 04D1  
                   l1534 04C1                     l1606 0458                     l1630 013A  
                   l1622 04A2                     l1614 0469                     l1704 01AE  
                   l1712 01BB                     l1720 0177                     l1480 02FB  
                   l1472 02EF                     l1464 02D4                     l1456 0317  
                   l1448 0301                     l1800 0538                     l1560 0506  
                   l1552 04E7                     l1544 04D5                     l1536 04C6  
                   l1608 045D                     l1528 0126                     l1616 046E  
                   l1640 05DF                     l1714 01BE                     l1706 015D  
                   l1722 017F                     l1482 02FE                     l1474 02F0  
                   l1466 02DE                     l1458 031E                     l1810 0558  
                   l1802 0539                     l1490 0341                     l1570 051E  
                   l1562 0507                     l1554 04EB                     l1546 04D7  
                   l1538 04C8                     l1626 0135                     l1618 0475  
                   l1650 060C                     l1642 05E3                     l1634 05C3  
                   l1730 022A                     l1740 0248                     l1716 01C6  
                   l1708 0160                     l1724 01D3                     l1476 02F4  
                   l1468 02E2                     l1820 0589                     l1812 0567  
                   l1804 053A                     l1492 0346                     l1564 050E  
                   l1556 04EF                     l1548 04DD                     l1580 0413  
                   l1628 0139                     l1660 064E                     l1652 0611  
                   l1644 05E7                     l1636 05D2                     l1732 022D  
                   l1900 077E                     l1742 024E                     l1750 0263  
                   l1726 01D6                     l1718 0174                     l1478 02F7  
                   l1830 05B5                     l1822 0591                     l1814 056D  
                   l1806 0540                     l1494 034A                     l1486 0338  
                   l1558 0500                     l1566 0514                     l1590 0427  
                   l1582 0415                     l1574 0409                     l1670 066C  
                   l1662 0654                     l1654 0613                     l1646 05F3  
                   l1638 05D8                     l1734 0237                     l1910 07B1  
                   l1902 0787                     l1752 0267                     l1744 0253  
                   l1760 0280                     l1728 01DE                     l1824 059B  
                   l1816 0577                     l1808 054F                     l1496 0350  
                   l1488 033D                     l1832 02AE                     l1568 0519  
                   l1592 042E                     l1584 0419                     l1576 040A  
                   l1672 067E                     l1664 0659                     l1656 061A  
                   l1648 05FF                     l1680 0695                     l1736 0245  
                   l1840 020B                     l1920 07E1                     l1912 07C2  
                   l1904 078F                     l1690 01F4                     l1746 0259  
                   l1762 0285                     l1754 026A                     l1770 029C  
                   l1826 05A3                     l1818 057F                     l1498 0354  
                   l1834 02AF                     l1594 0432                     l1586 041E  
                   l1578 040E                     l1666 065E                     l1674 0684  
                   l1658 0639                     l1842 020F                     l1914 07CB  
                   l1906 07A0                     l1780 0192                     l1692 01F9  
                   l1748 025E                     l1764 0289                     l1756 0270  
                   l1772 02A2                     l1828 05AD                     l1836 02BD  
                   l1596 0436                     l1588 0424                     l1668 0663  
                   l1676 068B                     l1844 0211                     l1916 07D3  
                   l1908 07A9                     l1790 01A0                     l1782 0196  
                   l1686 01EB                     l1694 0146                     l1758 027A  
                   l1774 02A7                     l1766 028C                     l1838 02C3  
                   l1598 0440                     l1846 0213                     l1918 07D9  
                   l1870 06E9                     l1792 01A1                     l1784 019D  
                   l1688 01F0                     l1696 0149                     l1776 02AB  
                   l1768 0292                     l1848 021D                     l1880 0718  
                   l1872 06F8                     l1864 06C3                     l1856 06AD  
                   l1786 019E                     l1778 018B                     l1698 0151  
                   l1794 0523                     l1970 03FD                     l1890 0743  
                   l1882 0721                     l1874 0700                     l1866 06D4  
                   l1858 06BF                     l1788 019F                     l1796 052C  
                   l1892 074B                     l1884 0729                     l1876 0707  
                   l1868 06DC                     l1798 0535                     l1894 075C  
                   l1886 0732                     l1878 0710                     l1896 0765  
                   l1888 073A                     l1898 076D                     STR_1 001B  
                   STR_2 002C                     STR_3 0041                     STR_4 0048  
                   STR_5 003E                     STR_6 003E                     STR_7 003E  
                   STR_8 0030                     u1000 04EF                     u1001 04EE  
                   u1020 0500                     u1100 0436                     u1021 04FF  
                   u1101 0435                     u1110 0440                     u1015 04F0  
                   u1111 043F                     u1040 0514                     u1200 05D2  
                   u1041 0513                     u1025 04FC                     u1201 05D1  
                   u1050 0519                     u1130 0453                     u1210 05F3  
                   u1051 0518                     u1035 0508                     u1131 0452  
                   u1115 043C                     u1211 05F2                     u1300 01F9  
                   u1140 0458                     u1060 040E                     u1220 05FF  
                   u1301 01F8                     u1141 0457                     u1125 0447  
                   u1061 040D                     u1221 05FE                     u1310 0207  
                   u1070 0419                     u1150 0469                     u1230 0618  
                   u1311 0206                     u1071 0418                     u1151 0468  
                   u1231 0616                     u1400 05BF                     u1080 0424  
                   u1160 046E                     u1240 0619                     u1320 0245  
                   u1401 05BE                     u1081 0423                     u1161 046D  
                   u1321 0244                     u1330 024E                     u1410 02D3  
                   u1170 0484                     u1250 0654                     u1331 024D  
                   u1411 02D2                     u1171 0483                     u1251 0653  
                   u1340 0270                     u1180 04A2                     u1260 0659  
                   u1420 06E9                     u1341 026F                     u1181 04A1  
                   u1261 0658                     u1421 06E8                     u1350 0292  
                   u1190 0139                     u1270 065E                     u1351 0291  
                   u1095 0428                     u1191 0138                     u1271 065D  
                   u1360 0577                     u1280 0663                     u1361 0576  
                   u1185 049E                     u1281 0662                     u1425 06E5  
                   u1370 0589                     u1290 068A                     u1507 0315  
                   u1371 0588                     u1291 0689                     u1380 059B  
                   u1517 031C                     u1381 059A                     u1390 05AD  
                   u1607 01DA                     u1527 03A4                     u1391 05AC  
                   u1617 01E5                     u1537 03AB                     u1627 0164  
                   u1547 02E0                     u1467 0530                     u1637 016F  
                   u1557 02E7                     u1477 0544                     u1647 01C2  
                   u1567 02F2                     u1487 0553                     u1657 01CD  
                   u1577 02F9                     u1497 0562                     u1667 014D  
                   u1587 017B                     u1677 0158                     u1597 0186  
                   u1687 01AA                     u1697 01B5                     _TMR0 0001  
                   abs@a 0076                     _dbuf 00A0                     _main 06AD  
                   _prec 005E             lcd_busy@busy 0071                     _tong 0065  
                   btemp 007E          __end_of_SP_THAP 028C                     start 0000  
            ?_PIC_Config 0070                    ??_abs 0078          ?_lcd_put_nibble 0070  
         ??_lcd_put_byte 0074                    ?_main 0070          __end_of___awdiv 0523  
        __end_of___awmod 0462                    _ANSEL 0188          ___awdiv@divisor 0070  
        ___awdiv@counter 0074             vfpfcnvrt@fmt 0028                    _PORTB 0006  
                  _PORTC 0007                    _TRISB 0086                    _TRISC 0087  
        ??_servo_xoay_G2 0070          ??_servo_xoay_G3 0070          ??_servo_xoay_P2 0070  
        ??_servo_xoay_P3 0070                    _flags 0060                    _fputc 0462  
                  _width 005C                    _putch 0125                    main@i 005A  
                  pclath 000A                    status 0003                    wtemp0 007E  
        __end_of_sprintf 0227          __initialization 07EB             __end_of_main 07EB  
          lcd_gotoxy@col 0078            lcd_gotoxy@row 0076       lcd_put_nibble@temp 0072  
                 ??_main 0048                   ?_fputc 0020         ___awdiv@dividend 0072  
                 ?_putch 0070                   _ANSELH 0189                ??_SP_THAP 0072  
          vfpfcnvrt@done 002C                   _TRISD0 0440                   _TRISD1 0441  
                 _TRISD2 0442                   _TRISD4 0444                   _TRISD5 0445  
                 _TRISD6 0446                   _TRISD7 0447                   _SP_CAO 0248  
                 _SP_VUA 028C             vfprintf@cfmt 0037         __end_of_lcd_busy 0300  
       __end_of_lcd_init 05C0         __end_of_lcd_putc 0409         __end_of_lcd_puts 02D4  
              ??___awdiv 0074                ??___awmod 0074         ___awdiv@quotient 0076  
        ___awmod@divisor 0070                   _sp_cao 0068          ___awmod@counter 0074  
                 _sp_vua 0066            lcd_put_byte@b 0073                   fputc@c 0020  
       __end_of_trai_tim 001B                   putch@c 007C         __end_of_vfprintf 0248  
              ??_sprintf 007D  __end_of__initialization 07FC     __end_of_lcd_put_byte 0337  
         __pcstackCOMMON 0070            __end_of_fputc 04BC            __end_of_putch 012D  
         _OPTION_REGbits 0081        lcd_gotoxy@address 0077                  ??_fputc 0023  
                ??_putch 007C               __pbssBANK0 005C               __pbssBANK1 00A0  
                ?_SP_CAO 0070                  ?_SP_VUA 0070             ??_PIC_Config 0070  
       ??_lcd_put_nibble 0070               __pmaintext 06AD               _lcd_gotoxy 0337  
     __end_of_PIC_Config 01A3                ?_lcd_busy 0070                ?_lcd_init 0070  
              ?_lcd_putc 0070                ?_lcd_puts 007C                  _SP_THAP 026A  
             __stringtab 0003                  ___awdiv 04BC                  ___awmod 0409  
              ?_vfprintf 0034                  __ptext1 0208                  __ptext2 0227  
                __ptext3 05C0                  __ptext4 0462                  __ptext5 0125  
                __ptext6 0135                  __ptext7 0409                  __ptext8 04BC  
                __ptext9 02AE         ___awmod@dividend 0072                  _sp_thap 0067  
  __end_of_servo_xoay_G2 01D3    __end_of_servo_xoay_G3 01EB    __end_of_servo_xoay_P2 0174  
  __end_of_servo_xoay_P3 018B                  _sprintf 0208                  clrloop0 012E  
             ??_lcd_busy 0070               ??_lcd_init 0076               ??_lcd_putc 0079  
             ??_lcd_puts 007E     end_of_initialization 07FC           lcd_put_byte@rs 0075  
          ??_delayTimer0 0070                  fputc@fp 0022        __end_of_vfpfcnvrt 06AD  
       vfpfcnvrt@convarg 002F               ??_vfprintf 007D                _PORTBbits 0006  
          ?_servo_xoay_G 0070            ?_servo_xoay_P 0070             _lcd_put_byte 0300  
            ?_lcd_gotoxy 0076               main@buffer 004A           __end_of_SP_CAO 026A  
         __end_of_SP_VUA 02AE      __end_of_delayTimer0 0208              vfpfcnvrt@ap 0029  
            vfpfcnvrt@cp 002E              vfpfcnvrt@fp 002D           ??_servo_xoay_G 0070  
         ??_servo_xoay_P 0070      start_initialization 07EB              __end_of_abs 0146  
               ??_SP_CAO 0072                 ??_SP_VUA 0072              vfprintf@fmt 0034  
              ___latbits 0002            __pcstackBANK0 0020                 ?_SP_THAP 0070  
            _delayTimer0 01EB                 ?___awdiv 0070                 ?___awmod 0070  
              _flag_thap 0063                _flag_tong 0061                __pstrings 0003  
               ?_sprintf 0038     __end_of_servo_xoay_G 01BB     __end_of_servo_xoay_P 015D  
              clear_ram0 012D                _vfpfcnvrt 05C0             delayTimer0@t 0070  
            __stringbase 0012                lcd_putc@c 007B                lcd_puts@s 007C  
           ??_lcd_gotoxy 0077               vfpfcnvrt@c 0033               vfprintf@ap 0035  
             vfprintf@fp 0036       __end_of_lcd_gotoxy 0371               ?_vfpfcnvrt 0028  
     __end_of__stringtab 0013               sprintf@fmt 0038                 _flag_cao 0064  
               __ptext10 03B1                 __ptext11 0337                 __ptext20 015D  
               __ptext12 0523                 __ptext21 01BB                 __ptext13 0300  
               __ptext22 0248                 __ptext14 0371                 __ptext23 0146  
               __ptext15 02D4                 __ptext24 01A3                 __ptext16 028C  
               __ptext25 01EB                 __ptext17 0174                 __ptext26 018B  
               __ptext18 01D3                 __ptext19 026A                 _flag_vua 0062  
               _lcd_busy 02D4                 _lcd_init 0523                 _lcd_putc 03B1  
               _lcd_puts 02AE                 _trai_tim 0013                 _vfprintf 0227  
        lcd_put_nibble@b 0071               _INTCONbits 000B            _servo_xoay_G2 01BB  
          _servo_xoay_G3 01D3            _servo_xoay_P2 015D            _servo_xoay_P3 0174  
              sprintf@ap 003B             ?_delayTimer0 0070                stringcode 000D  
             _PIC_Config 018B              ??_vfpfcnvrt 002A           _lcd_put_nibble 0371  
           _servo_xoay_G 01A3             _servo_xoay_P 0146                 sprintf@f 003D  
               sprintf@s 003C                 stringdir 000D                 stringtab 0003  
         ?_servo_xoay_G2 0070           ?_servo_xoay_G3 0070           ?_servo_xoay_P2 0070  
         ?_servo_xoay_P3 0070  
